ARM GAS  /tmp/ccxFNFiG.s 			page 1


   1              		.cpu cortex-m3
   2              		.arch armv7-m
   3              		.fpu softvfp
   4              		.eabi_attribute 20, 1
   5              		.eabi_attribute 21, 1
   6              		.eabi_attribute 23, 3
   7              		.eabi_attribute 24, 1
   8              		.eabi_attribute 25, 1
   9              		.eabi_attribute 26, 1
  10              		.eabi_attribute 30, 1
  11              		.eabi_attribute 34, 1
  12              		.eabi_attribute 18, 4
  13              		.file	"stm32f1xx_hal_sram.c"
  14              		.text
  15              	.Ltext0:
  16              		.cfi_sections	.debug_frame
  17              		.section	.text.HAL_SRAM_MspInit,"ax",%progbits
  18              		.align	1
  19              		.weak	HAL_SRAM_MspInit
  20              		.syntax unified
  21              		.thumb
  22              		.thumb_func
  24              	HAL_SRAM_MspInit:
  25              	.LVL0:
  26              	.LFB67:
  27              		.file 1 "Drivers/STM32F1xx_HAL_Driver/Src/stm32f1xx_hal_sram.c"
   1:Drivers/STM32F1xx_HAL_Driver/Src/stm32f1xx_hal_sram.c **** /**
   2:Drivers/STM32F1xx_HAL_Driver/Src/stm32f1xx_hal_sram.c ****   ******************************************************************************
   3:Drivers/STM32F1xx_HAL_Driver/Src/stm32f1xx_hal_sram.c ****   * @file    stm32f1xx_hal_sram.c
   4:Drivers/STM32F1xx_HAL_Driver/Src/stm32f1xx_hal_sram.c ****   * @author  MCD Application Team
   5:Drivers/STM32F1xx_HAL_Driver/Src/stm32f1xx_hal_sram.c ****   * @brief   SRAM HAL module driver.
   6:Drivers/STM32F1xx_HAL_Driver/Src/stm32f1xx_hal_sram.c ****   *          This file provides a generic firmware to drive SRAM memories
   7:Drivers/STM32F1xx_HAL_Driver/Src/stm32f1xx_hal_sram.c ****   *          mounted as external device.
   8:Drivers/STM32F1xx_HAL_Driver/Src/stm32f1xx_hal_sram.c ****   *
   9:Drivers/STM32F1xx_HAL_Driver/Src/stm32f1xx_hal_sram.c ****   @verbatim
  10:Drivers/STM32F1xx_HAL_Driver/Src/stm32f1xx_hal_sram.c ****   ==============================================================================
  11:Drivers/STM32F1xx_HAL_Driver/Src/stm32f1xx_hal_sram.c ****                           ##### How to use this driver #####
  12:Drivers/STM32F1xx_HAL_Driver/Src/stm32f1xx_hal_sram.c ****   ==============================================================================
  13:Drivers/STM32F1xx_HAL_Driver/Src/stm32f1xx_hal_sram.c ****   [..]
  14:Drivers/STM32F1xx_HAL_Driver/Src/stm32f1xx_hal_sram.c ****     This driver is a generic layered driver which contains a set of APIs used to
  15:Drivers/STM32F1xx_HAL_Driver/Src/stm32f1xx_hal_sram.c ****     control SRAM memories. It uses the FSMC layer functions to interface
  16:Drivers/STM32F1xx_HAL_Driver/Src/stm32f1xx_hal_sram.c ****     with SRAM devices.
  17:Drivers/STM32F1xx_HAL_Driver/Src/stm32f1xx_hal_sram.c ****     The following sequence should be followed to configure the FSMC to interface
  18:Drivers/STM32F1xx_HAL_Driver/Src/stm32f1xx_hal_sram.c ****     with SRAM/PSRAM memories:
  19:Drivers/STM32F1xx_HAL_Driver/Src/stm32f1xx_hal_sram.c **** 
  20:Drivers/STM32F1xx_HAL_Driver/Src/stm32f1xx_hal_sram.c ****    (#) Declare a SRAM_HandleTypeDef handle structure, for example:
  21:Drivers/STM32F1xx_HAL_Driver/Src/stm32f1xx_hal_sram.c ****           SRAM_HandleTypeDef  hsram; and:
  22:Drivers/STM32F1xx_HAL_Driver/Src/stm32f1xx_hal_sram.c **** 
  23:Drivers/STM32F1xx_HAL_Driver/Src/stm32f1xx_hal_sram.c ****        (++) Fill the SRAM_HandleTypeDef handle "Init" field with the allowed
  24:Drivers/STM32F1xx_HAL_Driver/Src/stm32f1xx_hal_sram.c ****             values of the structure member.
  25:Drivers/STM32F1xx_HAL_Driver/Src/stm32f1xx_hal_sram.c **** 
  26:Drivers/STM32F1xx_HAL_Driver/Src/stm32f1xx_hal_sram.c ****        (++) Fill the SRAM_HandleTypeDef handle "Instance" field with a predefined
  27:Drivers/STM32F1xx_HAL_Driver/Src/stm32f1xx_hal_sram.c ****             base register instance for NOR or SRAM device
  28:Drivers/STM32F1xx_HAL_Driver/Src/stm32f1xx_hal_sram.c **** 
  29:Drivers/STM32F1xx_HAL_Driver/Src/stm32f1xx_hal_sram.c ****        (++) Fill the SRAM_HandleTypeDef handle "Extended" field with a predefined
  30:Drivers/STM32F1xx_HAL_Driver/Src/stm32f1xx_hal_sram.c ****             base register instance for NOR or SRAM extended mode
  31:Drivers/STM32F1xx_HAL_Driver/Src/stm32f1xx_hal_sram.c **** 
ARM GAS  /tmp/ccxFNFiG.s 			page 2


  32:Drivers/STM32F1xx_HAL_Driver/Src/stm32f1xx_hal_sram.c ****    (#) Declare two FSMC_NORSRAM_TimingTypeDef structures, for both normal and extended
  33:Drivers/STM32F1xx_HAL_Driver/Src/stm32f1xx_hal_sram.c ****        mode timings; for example:
  34:Drivers/STM32F1xx_HAL_Driver/Src/stm32f1xx_hal_sram.c ****           FSMC_NORSRAM_TimingTypeDef  Timing and FSMC_NORSRAM_TimingTypeDef  ExTiming;
  35:Drivers/STM32F1xx_HAL_Driver/Src/stm32f1xx_hal_sram.c ****       and fill its fields with the allowed values of the structure member.
  36:Drivers/STM32F1xx_HAL_Driver/Src/stm32f1xx_hal_sram.c **** 
  37:Drivers/STM32F1xx_HAL_Driver/Src/stm32f1xx_hal_sram.c ****    (#) Initialize the SRAM Controller by calling the function HAL_SRAM_Init(). This function
  38:Drivers/STM32F1xx_HAL_Driver/Src/stm32f1xx_hal_sram.c ****        performs the following sequence:
  39:Drivers/STM32F1xx_HAL_Driver/Src/stm32f1xx_hal_sram.c **** 
  40:Drivers/STM32F1xx_HAL_Driver/Src/stm32f1xx_hal_sram.c ****        (##) MSP hardware layer configuration using the function HAL_SRAM_MspInit()
  41:Drivers/STM32F1xx_HAL_Driver/Src/stm32f1xx_hal_sram.c ****        (##) Control register configuration using the FSMC NORSRAM interface function
  42:Drivers/STM32F1xx_HAL_Driver/Src/stm32f1xx_hal_sram.c ****             FSMC_NORSRAM_Init()
  43:Drivers/STM32F1xx_HAL_Driver/Src/stm32f1xx_hal_sram.c ****        (##) Timing register configuration using the FSMC NORSRAM interface function
  44:Drivers/STM32F1xx_HAL_Driver/Src/stm32f1xx_hal_sram.c ****             FSMC_NORSRAM_Timing_Init()
  45:Drivers/STM32F1xx_HAL_Driver/Src/stm32f1xx_hal_sram.c ****        (##) Extended mode Timing register configuration using the FSMC NORSRAM interface function
  46:Drivers/STM32F1xx_HAL_Driver/Src/stm32f1xx_hal_sram.c ****             FSMC_NORSRAM_Extended_Timing_Init()
  47:Drivers/STM32F1xx_HAL_Driver/Src/stm32f1xx_hal_sram.c ****        (##) Enable the SRAM device using the macro __FSMC_NORSRAM_ENABLE()
  48:Drivers/STM32F1xx_HAL_Driver/Src/stm32f1xx_hal_sram.c **** 
  49:Drivers/STM32F1xx_HAL_Driver/Src/stm32f1xx_hal_sram.c ****    (#) At this stage you can perform read/write accesses from/to the memory connected
  50:Drivers/STM32F1xx_HAL_Driver/Src/stm32f1xx_hal_sram.c ****        to the NOR/SRAM Bank. You can perform either polling or DMA transfer using the
  51:Drivers/STM32F1xx_HAL_Driver/Src/stm32f1xx_hal_sram.c ****        following APIs:
  52:Drivers/STM32F1xx_HAL_Driver/Src/stm32f1xx_hal_sram.c ****        (++) HAL_SRAM_Read()/HAL_SRAM_Write() for polling read/write access
  53:Drivers/STM32F1xx_HAL_Driver/Src/stm32f1xx_hal_sram.c ****        (++) HAL_SRAM_Read_DMA()/HAL_SRAM_Write_DMA() for DMA read/write transfer
  54:Drivers/STM32F1xx_HAL_Driver/Src/stm32f1xx_hal_sram.c **** 
  55:Drivers/STM32F1xx_HAL_Driver/Src/stm32f1xx_hal_sram.c ****    (#) You can also control the SRAM device by calling the control APIs HAL_SRAM_WriteOperation_Ena
  56:Drivers/STM32F1xx_HAL_Driver/Src/stm32f1xx_hal_sram.c ****        HAL_SRAM_WriteOperation_Disable() to respectively enable/disable the SRAM write operation
  57:Drivers/STM32F1xx_HAL_Driver/Src/stm32f1xx_hal_sram.c **** 
  58:Drivers/STM32F1xx_HAL_Driver/Src/stm32f1xx_hal_sram.c ****    (#) You can continuously monitor the SRAM device HAL state by calling the function
  59:Drivers/STM32F1xx_HAL_Driver/Src/stm32f1xx_hal_sram.c ****        HAL_SRAM_GetState()
  60:Drivers/STM32F1xx_HAL_Driver/Src/stm32f1xx_hal_sram.c **** 
  61:Drivers/STM32F1xx_HAL_Driver/Src/stm32f1xx_hal_sram.c ****        *** Callback registration ***
  62:Drivers/STM32F1xx_HAL_Driver/Src/stm32f1xx_hal_sram.c ****     =============================================
  63:Drivers/STM32F1xx_HAL_Driver/Src/stm32f1xx_hal_sram.c ****     [..]
  64:Drivers/STM32F1xx_HAL_Driver/Src/stm32f1xx_hal_sram.c ****       The compilation define  USE_HAL_SRAM_REGISTER_CALLBACKS when set to 1
  65:Drivers/STM32F1xx_HAL_Driver/Src/stm32f1xx_hal_sram.c ****       allows the user to configure dynamically the driver callbacks.
  66:Drivers/STM32F1xx_HAL_Driver/Src/stm32f1xx_hal_sram.c **** 
  67:Drivers/STM32F1xx_HAL_Driver/Src/stm32f1xx_hal_sram.c ****       Use Functions @ref HAL_SRAM_RegisterCallback() to register a user callback,
  68:Drivers/STM32F1xx_HAL_Driver/Src/stm32f1xx_hal_sram.c ****       it allows to register following callbacks:
  69:Drivers/STM32F1xx_HAL_Driver/Src/stm32f1xx_hal_sram.c ****         (+) MspInitCallback    : SRAM MspInit.
  70:Drivers/STM32F1xx_HAL_Driver/Src/stm32f1xx_hal_sram.c ****         (+) MspDeInitCallback  : SRAM MspDeInit.
  71:Drivers/STM32F1xx_HAL_Driver/Src/stm32f1xx_hal_sram.c ****       This function takes as parameters the HAL peripheral handle, the Callback ID
  72:Drivers/STM32F1xx_HAL_Driver/Src/stm32f1xx_hal_sram.c ****       and a pointer to the user callback function.
  73:Drivers/STM32F1xx_HAL_Driver/Src/stm32f1xx_hal_sram.c **** 
  74:Drivers/STM32F1xx_HAL_Driver/Src/stm32f1xx_hal_sram.c ****       Use function @ref HAL_SRAM_UnRegisterCallback() to reset a callback to the default
  75:Drivers/STM32F1xx_HAL_Driver/Src/stm32f1xx_hal_sram.c ****       weak (surcharged) function. It allows to reset following callbacks:
  76:Drivers/STM32F1xx_HAL_Driver/Src/stm32f1xx_hal_sram.c ****         (+) MspInitCallback    : SRAM MspInit.
  77:Drivers/STM32F1xx_HAL_Driver/Src/stm32f1xx_hal_sram.c ****         (+) MspDeInitCallback  : SRAM MspDeInit.
  78:Drivers/STM32F1xx_HAL_Driver/Src/stm32f1xx_hal_sram.c ****       This function) takes as parameters the HAL peripheral handle and the Callback ID.
  79:Drivers/STM32F1xx_HAL_Driver/Src/stm32f1xx_hal_sram.c **** 
  80:Drivers/STM32F1xx_HAL_Driver/Src/stm32f1xx_hal_sram.c ****       By default, after the @ref HAL_SRAM_Init and if the state is HAL_SRAM_STATE_RESET
  81:Drivers/STM32F1xx_HAL_Driver/Src/stm32f1xx_hal_sram.c ****       all callbacks are reset to the corresponding legacy weak (surcharged) functions.
  82:Drivers/STM32F1xx_HAL_Driver/Src/stm32f1xx_hal_sram.c ****       Exception done for MspInit and MspDeInit callbacks that are respectively
  83:Drivers/STM32F1xx_HAL_Driver/Src/stm32f1xx_hal_sram.c ****       reset to the legacy weak (surcharged) functions in the @ref HAL_SRAM_Init
  84:Drivers/STM32F1xx_HAL_Driver/Src/stm32f1xx_hal_sram.c ****       and @ref  HAL_SRAM_DeInit only when these callbacks are null (not registered beforehand).
  85:Drivers/STM32F1xx_HAL_Driver/Src/stm32f1xx_hal_sram.c ****       If not, MspInit or MspDeInit are not null, the @ref HAL_SRAM_Init and @ref HAL_SRAM_DeInit
  86:Drivers/STM32F1xx_HAL_Driver/Src/stm32f1xx_hal_sram.c ****       keep and use the user MspInit/MspDeInit callbacks (registered beforehand)
  87:Drivers/STM32F1xx_HAL_Driver/Src/stm32f1xx_hal_sram.c **** 
  88:Drivers/STM32F1xx_HAL_Driver/Src/stm32f1xx_hal_sram.c ****       Callbacks can be registered/unregistered in READY state only.
ARM GAS  /tmp/ccxFNFiG.s 			page 3


  89:Drivers/STM32F1xx_HAL_Driver/Src/stm32f1xx_hal_sram.c ****       Exception done for MspInit/MspDeInit callbacks that can be registered/unregistered
  90:Drivers/STM32F1xx_HAL_Driver/Src/stm32f1xx_hal_sram.c ****       in READY or RESET state, thus registered (user) MspInit/DeInit callbacks can be used
  91:Drivers/STM32F1xx_HAL_Driver/Src/stm32f1xx_hal_sram.c ****       during the Init/DeInit.
  92:Drivers/STM32F1xx_HAL_Driver/Src/stm32f1xx_hal_sram.c ****       In that case first register the MspInit/MspDeInit user callbacks
  93:Drivers/STM32F1xx_HAL_Driver/Src/stm32f1xx_hal_sram.c ****       using @ref HAL_SRAM_RegisterCallback before calling @ref HAL_SRAM_DeInit
  94:Drivers/STM32F1xx_HAL_Driver/Src/stm32f1xx_hal_sram.c ****       or @ref HAL_SRAM_Init function.
  95:Drivers/STM32F1xx_HAL_Driver/Src/stm32f1xx_hal_sram.c **** 
  96:Drivers/STM32F1xx_HAL_Driver/Src/stm32f1xx_hal_sram.c ****       When The compilation define USE_HAL_SRAM_REGISTER_CALLBACKS is set to 0 or
  97:Drivers/STM32F1xx_HAL_Driver/Src/stm32f1xx_hal_sram.c ****       not defined, the callback registering feature is not available
  98:Drivers/STM32F1xx_HAL_Driver/Src/stm32f1xx_hal_sram.c ****       and weak (surcharged) callbacks are used.
  99:Drivers/STM32F1xx_HAL_Driver/Src/stm32f1xx_hal_sram.c **** 
 100:Drivers/STM32F1xx_HAL_Driver/Src/stm32f1xx_hal_sram.c ****   @endverbatim
 101:Drivers/STM32F1xx_HAL_Driver/Src/stm32f1xx_hal_sram.c ****   ******************************************************************************
 102:Drivers/STM32F1xx_HAL_Driver/Src/stm32f1xx_hal_sram.c ****   * @attention
 103:Drivers/STM32F1xx_HAL_Driver/Src/stm32f1xx_hal_sram.c ****   *
 104:Drivers/STM32F1xx_HAL_Driver/Src/stm32f1xx_hal_sram.c ****   * <h2><center>&copy; Copyright (c) 2016 STMicroelectronics.
 105:Drivers/STM32F1xx_HAL_Driver/Src/stm32f1xx_hal_sram.c ****   * All rights reserved.</center></h2>
 106:Drivers/STM32F1xx_HAL_Driver/Src/stm32f1xx_hal_sram.c ****   *
 107:Drivers/STM32F1xx_HAL_Driver/Src/stm32f1xx_hal_sram.c ****   * This software component is licensed by ST under BSD 3-Clause license,
 108:Drivers/STM32F1xx_HAL_Driver/Src/stm32f1xx_hal_sram.c ****   * the "License"; You may not use this file except in compliance with the
 109:Drivers/STM32F1xx_HAL_Driver/Src/stm32f1xx_hal_sram.c ****   * License. You may obtain a copy of the License at:
 110:Drivers/STM32F1xx_HAL_Driver/Src/stm32f1xx_hal_sram.c ****   *                       opensource.org/licenses/BSD-3-Clause
 111:Drivers/STM32F1xx_HAL_Driver/Src/stm32f1xx_hal_sram.c ****   *
 112:Drivers/STM32F1xx_HAL_Driver/Src/stm32f1xx_hal_sram.c ****   ******************************************************************************
 113:Drivers/STM32F1xx_HAL_Driver/Src/stm32f1xx_hal_sram.c ****   */
 114:Drivers/STM32F1xx_HAL_Driver/Src/stm32f1xx_hal_sram.c **** 
 115:Drivers/STM32F1xx_HAL_Driver/Src/stm32f1xx_hal_sram.c **** /* Includes ------------------------------------------------------------------*/
 116:Drivers/STM32F1xx_HAL_Driver/Src/stm32f1xx_hal_sram.c **** #include "stm32f1xx_hal.h"
 117:Drivers/STM32F1xx_HAL_Driver/Src/stm32f1xx_hal_sram.c **** 
 118:Drivers/STM32F1xx_HAL_Driver/Src/stm32f1xx_hal_sram.c **** #if defined(FSMC_BANK1)
 119:Drivers/STM32F1xx_HAL_Driver/Src/stm32f1xx_hal_sram.c **** 
 120:Drivers/STM32F1xx_HAL_Driver/Src/stm32f1xx_hal_sram.c **** /** @addtogroup STM32F1xx_HAL_Driver
 121:Drivers/STM32F1xx_HAL_Driver/Src/stm32f1xx_hal_sram.c ****   * @{
 122:Drivers/STM32F1xx_HAL_Driver/Src/stm32f1xx_hal_sram.c ****   */
 123:Drivers/STM32F1xx_HAL_Driver/Src/stm32f1xx_hal_sram.c **** 
 124:Drivers/STM32F1xx_HAL_Driver/Src/stm32f1xx_hal_sram.c **** #ifdef HAL_SRAM_MODULE_ENABLED
 125:Drivers/STM32F1xx_HAL_Driver/Src/stm32f1xx_hal_sram.c **** 
 126:Drivers/STM32F1xx_HAL_Driver/Src/stm32f1xx_hal_sram.c **** /** @defgroup SRAM SRAM
 127:Drivers/STM32F1xx_HAL_Driver/Src/stm32f1xx_hal_sram.c ****   * @brief SRAM driver modules
 128:Drivers/STM32F1xx_HAL_Driver/Src/stm32f1xx_hal_sram.c ****   * @{
 129:Drivers/STM32F1xx_HAL_Driver/Src/stm32f1xx_hal_sram.c ****   */
 130:Drivers/STM32F1xx_HAL_Driver/Src/stm32f1xx_hal_sram.c **** 
 131:Drivers/STM32F1xx_HAL_Driver/Src/stm32f1xx_hal_sram.c **** /* Private typedef -----------------------------------------------------------*/
 132:Drivers/STM32F1xx_HAL_Driver/Src/stm32f1xx_hal_sram.c **** /* Private define ------------------------------------------------------------*/
 133:Drivers/STM32F1xx_HAL_Driver/Src/stm32f1xx_hal_sram.c **** /* Private macro -------------------------------------------------------------*/
 134:Drivers/STM32F1xx_HAL_Driver/Src/stm32f1xx_hal_sram.c **** /* Private variables ---------------------------------------------------------*/
 135:Drivers/STM32F1xx_HAL_Driver/Src/stm32f1xx_hal_sram.c **** /* Private function prototypes -----------------------------------------------*/
 136:Drivers/STM32F1xx_HAL_Driver/Src/stm32f1xx_hal_sram.c **** static void SRAM_DMACplt(DMA_HandleTypeDef *hdma);
 137:Drivers/STM32F1xx_HAL_Driver/Src/stm32f1xx_hal_sram.c **** static void SRAM_DMACpltProt(DMA_HandleTypeDef *hdma);
 138:Drivers/STM32F1xx_HAL_Driver/Src/stm32f1xx_hal_sram.c **** static void SRAM_DMAError(DMA_HandleTypeDef *hdma);
 139:Drivers/STM32F1xx_HAL_Driver/Src/stm32f1xx_hal_sram.c **** 
 140:Drivers/STM32F1xx_HAL_Driver/Src/stm32f1xx_hal_sram.c **** /* Exported functions --------------------------------------------------------*/
 141:Drivers/STM32F1xx_HAL_Driver/Src/stm32f1xx_hal_sram.c **** 
 142:Drivers/STM32F1xx_HAL_Driver/Src/stm32f1xx_hal_sram.c **** /** @defgroup SRAM_Exported_Functions SRAM Exported Functions
 143:Drivers/STM32F1xx_HAL_Driver/Src/stm32f1xx_hal_sram.c ****   * @{
 144:Drivers/STM32F1xx_HAL_Driver/Src/stm32f1xx_hal_sram.c ****   */
 145:Drivers/STM32F1xx_HAL_Driver/Src/stm32f1xx_hal_sram.c **** 
ARM GAS  /tmp/ccxFNFiG.s 			page 4


 146:Drivers/STM32F1xx_HAL_Driver/Src/stm32f1xx_hal_sram.c **** /** @defgroup SRAM_Exported_Functions_Group1 Initialization and de-initialization functions
 147:Drivers/STM32F1xx_HAL_Driver/Src/stm32f1xx_hal_sram.c ****   * @brief    Initialization and Configuration functions.
 148:Drivers/STM32F1xx_HAL_Driver/Src/stm32f1xx_hal_sram.c ****   *
 149:Drivers/STM32F1xx_HAL_Driver/Src/stm32f1xx_hal_sram.c ****   @verbatim
 150:Drivers/STM32F1xx_HAL_Driver/Src/stm32f1xx_hal_sram.c ****   ==============================================================================
 151:Drivers/STM32F1xx_HAL_Driver/Src/stm32f1xx_hal_sram.c ****            ##### SRAM Initialization and de_initialization functions #####
 152:Drivers/STM32F1xx_HAL_Driver/Src/stm32f1xx_hal_sram.c ****   ==============================================================================
 153:Drivers/STM32F1xx_HAL_Driver/Src/stm32f1xx_hal_sram.c ****     [..]  This section provides functions allowing to initialize/de-initialize
 154:Drivers/STM32F1xx_HAL_Driver/Src/stm32f1xx_hal_sram.c ****           the SRAM memory
 155:Drivers/STM32F1xx_HAL_Driver/Src/stm32f1xx_hal_sram.c **** 
 156:Drivers/STM32F1xx_HAL_Driver/Src/stm32f1xx_hal_sram.c **** @endverbatim
 157:Drivers/STM32F1xx_HAL_Driver/Src/stm32f1xx_hal_sram.c ****   * @{
 158:Drivers/STM32F1xx_HAL_Driver/Src/stm32f1xx_hal_sram.c ****   */
 159:Drivers/STM32F1xx_HAL_Driver/Src/stm32f1xx_hal_sram.c **** 
 160:Drivers/STM32F1xx_HAL_Driver/Src/stm32f1xx_hal_sram.c **** /**
 161:Drivers/STM32F1xx_HAL_Driver/Src/stm32f1xx_hal_sram.c ****   * @brief  Performs the SRAM device initialization sequence
 162:Drivers/STM32F1xx_HAL_Driver/Src/stm32f1xx_hal_sram.c ****   * @param  hsram pointer to a SRAM_HandleTypeDef structure that contains
 163:Drivers/STM32F1xx_HAL_Driver/Src/stm32f1xx_hal_sram.c ****   *                the configuration information for SRAM module.
 164:Drivers/STM32F1xx_HAL_Driver/Src/stm32f1xx_hal_sram.c ****   * @param  Timing Pointer to SRAM control timing structure
 165:Drivers/STM32F1xx_HAL_Driver/Src/stm32f1xx_hal_sram.c ****   * @param  ExtTiming Pointer to SRAM extended mode timing structure
 166:Drivers/STM32F1xx_HAL_Driver/Src/stm32f1xx_hal_sram.c ****   * @retval HAL status
 167:Drivers/STM32F1xx_HAL_Driver/Src/stm32f1xx_hal_sram.c ****   */
 168:Drivers/STM32F1xx_HAL_Driver/Src/stm32f1xx_hal_sram.c **** HAL_StatusTypeDef HAL_SRAM_Init(SRAM_HandleTypeDef *hsram, FSMC_NORSRAM_TimingTypeDef *Timing,
 169:Drivers/STM32F1xx_HAL_Driver/Src/stm32f1xx_hal_sram.c ****                                 FSMC_NORSRAM_TimingTypeDef *ExtTiming)
 170:Drivers/STM32F1xx_HAL_Driver/Src/stm32f1xx_hal_sram.c **** {
 171:Drivers/STM32F1xx_HAL_Driver/Src/stm32f1xx_hal_sram.c ****   /* Check the SRAM handle parameter */
 172:Drivers/STM32F1xx_HAL_Driver/Src/stm32f1xx_hal_sram.c ****   if ((hsram == NULL) || (hsram->Init.BurstAccessMode == FSMC_BURST_ACCESS_MODE_ENABLE))
 173:Drivers/STM32F1xx_HAL_Driver/Src/stm32f1xx_hal_sram.c ****   {
 174:Drivers/STM32F1xx_HAL_Driver/Src/stm32f1xx_hal_sram.c ****     return HAL_ERROR;
 175:Drivers/STM32F1xx_HAL_Driver/Src/stm32f1xx_hal_sram.c ****   }
 176:Drivers/STM32F1xx_HAL_Driver/Src/stm32f1xx_hal_sram.c **** 
 177:Drivers/STM32F1xx_HAL_Driver/Src/stm32f1xx_hal_sram.c ****   if (hsram->State == HAL_SRAM_STATE_RESET)
 178:Drivers/STM32F1xx_HAL_Driver/Src/stm32f1xx_hal_sram.c ****   {
 179:Drivers/STM32F1xx_HAL_Driver/Src/stm32f1xx_hal_sram.c ****     /* Allocate lock resource and initialize it */
 180:Drivers/STM32F1xx_HAL_Driver/Src/stm32f1xx_hal_sram.c ****     hsram->Lock = HAL_UNLOCKED;
 181:Drivers/STM32F1xx_HAL_Driver/Src/stm32f1xx_hal_sram.c **** 
 182:Drivers/STM32F1xx_HAL_Driver/Src/stm32f1xx_hal_sram.c **** #if (USE_HAL_SRAM_REGISTER_CALLBACKS == 1)
 183:Drivers/STM32F1xx_HAL_Driver/Src/stm32f1xx_hal_sram.c ****     if (hsram->MspInitCallback == NULL)
 184:Drivers/STM32F1xx_HAL_Driver/Src/stm32f1xx_hal_sram.c ****     {
 185:Drivers/STM32F1xx_HAL_Driver/Src/stm32f1xx_hal_sram.c ****       hsram->MspInitCallback = HAL_SRAM_MspInit;
 186:Drivers/STM32F1xx_HAL_Driver/Src/stm32f1xx_hal_sram.c ****     }
 187:Drivers/STM32F1xx_HAL_Driver/Src/stm32f1xx_hal_sram.c ****     hsram->DmaXferCpltCallback = HAL_SRAM_DMA_XferCpltCallback;
 188:Drivers/STM32F1xx_HAL_Driver/Src/stm32f1xx_hal_sram.c ****     hsram->DmaXferErrorCallback = HAL_SRAM_DMA_XferErrorCallback;
 189:Drivers/STM32F1xx_HAL_Driver/Src/stm32f1xx_hal_sram.c **** 
 190:Drivers/STM32F1xx_HAL_Driver/Src/stm32f1xx_hal_sram.c ****     /* Init the low level hardware */
 191:Drivers/STM32F1xx_HAL_Driver/Src/stm32f1xx_hal_sram.c ****     hsram->MspInitCallback(hsram);
 192:Drivers/STM32F1xx_HAL_Driver/Src/stm32f1xx_hal_sram.c **** #else
 193:Drivers/STM32F1xx_HAL_Driver/Src/stm32f1xx_hal_sram.c ****     /* Initialize the low level hardware (MSP) */
 194:Drivers/STM32F1xx_HAL_Driver/Src/stm32f1xx_hal_sram.c ****     HAL_SRAM_MspInit(hsram);
 195:Drivers/STM32F1xx_HAL_Driver/Src/stm32f1xx_hal_sram.c **** #endif /* USE_HAL_SRAM_REGISTER_CALLBACKS */
 196:Drivers/STM32F1xx_HAL_Driver/Src/stm32f1xx_hal_sram.c ****   }
 197:Drivers/STM32F1xx_HAL_Driver/Src/stm32f1xx_hal_sram.c **** 
 198:Drivers/STM32F1xx_HAL_Driver/Src/stm32f1xx_hal_sram.c ****   /* Initialize SRAM control Interface */
 199:Drivers/STM32F1xx_HAL_Driver/Src/stm32f1xx_hal_sram.c ****   (void)FSMC_NORSRAM_Init(hsram->Instance, &(hsram->Init));
 200:Drivers/STM32F1xx_HAL_Driver/Src/stm32f1xx_hal_sram.c **** 
 201:Drivers/STM32F1xx_HAL_Driver/Src/stm32f1xx_hal_sram.c ****   /* Initialize SRAM timing Interface */
 202:Drivers/STM32F1xx_HAL_Driver/Src/stm32f1xx_hal_sram.c ****   (void)FSMC_NORSRAM_Timing_Init(hsram->Instance, Timing, hsram->Init.NSBank);
ARM GAS  /tmp/ccxFNFiG.s 			page 5


 203:Drivers/STM32F1xx_HAL_Driver/Src/stm32f1xx_hal_sram.c **** 
 204:Drivers/STM32F1xx_HAL_Driver/Src/stm32f1xx_hal_sram.c ****   /* Initialize SRAM extended mode timing Interface */
 205:Drivers/STM32F1xx_HAL_Driver/Src/stm32f1xx_hal_sram.c ****   (void)FSMC_NORSRAM_Extended_Timing_Init(hsram->Extended, ExtTiming, hsram->Init.NSBank,
 206:Drivers/STM32F1xx_HAL_Driver/Src/stm32f1xx_hal_sram.c ****                                          hsram->Init.ExtendedMode);
 207:Drivers/STM32F1xx_HAL_Driver/Src/stm32f1xx_hal_sram.c **** 
 208:Drivers/STM32F1xx_HAL_Driver/Src/stm32f1xx_hal_sram.c ****   /* Enable the NORSRAM device */
 209:Drivers/STM32F1xx_HAL_Driver/Src/stm32f1xx_hal_sram.c ****   __FSMC_NORSRAM_ENABLE(hsram->Instance, hsram->Init.NSBank);
 210:Drivers/STM32F1xx_HAL_Driver/Src/stm32f1xx_hal_sram.c **** 
 211:Drivers/STM32F1xx_HAL_Driver/Src/stm32f1xx_hal_sram.c ****   /* Initialize the SRAM controller state */
 212:Drivers/STM32F1xx_HAL_Driver/Src/stm32f1xx_hal_sram.c ****   hsram->State = HAL_SRAM_STATE_READY;
 213:Drivers/STM32F1xx_HAL_Driver/Src/stm32f1xx_hal_sram.c **** 
 214:Drivers/STM32F1xx_HAL_Driver/Src/stm32f1xx_hal_sram.c ****   return HAL_OK;
 215:Drivers/STM32F1xx_HAL_Driver/Src/stm32f1xx_hal_sram.c **** }
 216:Drivers/STM32F1xx_HAL_Driver/Src/stm32f1xx_hal_sram.c **** 
 217:Drivers/STM32F1xx_HAL_Driver/Src/stm32f1xx_hal_sram.c **** /**
 218:Drivers/STM32F1xx_HAL_Driver/Src/stm32f1xx_hal_sram.c ****   * @brief  Performs the SRAM device De-initialization sequence.
 219:Drivers/STM32F1xx_HAL_Driver/Src/stm32f1xx_hal_sram.c ****   * @param  hsram pointer to a SRAM_HandleTypeDef structure that contains
 220:Drivers/STM32F1xx_HAL_Driver/Src/stm32f1xx_hal_sram.c ****   *                the configuration information for SRAM module.
 221:Drivers/STM32F1xx_HAL_Driver/Src/stm32f1xx_hal_sram.c ****   * @retval HAL status
 222:Drivers/STM32F1xx_HAL_Driver/Src/stm32f1xx_hal_sram.c ****   */
 223:Drivers/STM32F1xx_HAL_Driver/Src/stm32f1xx_hal_sram.c **** HAL_StatusTypeDef HAL_SRAM_DeInit(SRAM_HandleTypeDef *hsram)
 224:Drivers/STM32F1xx_HAL_Driver/Src/stm32f1xx_hal_sram.c **** {
 225:Drivers/STM32F1xx_HAL_Driver/Src/stm32f1xx_hal_sram.c **** #if (USE_HAL_SRAM_REGISTER_CALLBACKS == 1)
 226:Drivers/STM32F1xx_HAL_Driver/Src/stm32f1xx_hal_sram.c ****   if (hsram->MspDeInitCallback == NULL)
 227:Drivers/STM32F1xx_HAL_Driver/Src/stm32f1xx_hal_sram.c ****   {
 228:Drivers/STM32F1xx_HAL_Driver/Src/stm32f1xx_hal_sram.c ****     hsram->MspDeInitCallback = HAL_SRAM_MspDeInit;
 229:Drivers/STM32F1xx_HAL_Driver/Src/stm32f1xx_hal_sram.c ****   }
 230:Drivers/STM32F1xx_HAL_Driver/Src/stm32f1xx_hal_sram.c **** 
 231:Drivers/STM32F1xx_HAL_Driver/Src/stm32f1xx_hal_sram.c ****   /* DeInit the low level hardware */
 232:Drivers/STM32F1xx_HAL_Driver/Src/stm32f1xx_hal_sram.c ****   hsram->MspDeInitCallback(hsram);
 233:Drivers/STM32F1xx_HAL_Driver/Src/stm32f1xx_hal_sram.c **** #else
 234:Drivers/STM32F1xx_HAL_Driver/Src/stm32f1xx_hal_sram.c ****   /* De-Initialize the low level hardware (MSP) */
 235:Drivers/STM32F1xx_HAL_Driver/Src/stm32f1xx_hal_sram.c ****   HAL_SRAM_MspDeInit(hsram);
 236:Drivers/STM32F1xx_HAL_Driver/Src/stm32f1xx_hal_sram.c **** #endif /* USE_HAL_SRAM_REGISTER_CALLBACKS */
 237:Drivers/STM32F1xx_HAL_Driver/Src/stm32f1xx_hal_sram.c **** 
 238:Drivers/STM32F1xx_HAL_Driver/Src/stm32f1xx_hal_sram.c ****   /* Configure the SRAM registers with their reset values */
 239:Drivers/STM32F1xx_HAL_Driver/Src/stm32f1xx_hal_sram.c ****   (void)FSMC_NORSRAM_DeInit(hsram->Instance, hsram->Extended, hsram->Init.NSBank);
 240:Drivers/STM32F1xx_HAL_Driver/Src/stm32f1xx_hal_sram.c **** 
 241:Drivers/STM32F1xx_HAL_Driver/Src/stm32f1xx_hal_sram.c ****   /* Reset the SRAM controller state */
 242:Drivers/STM32F1xx_HAL_Driver/Src/stm32f1xx_hal_sram.c ****   hsram->State = HAL_SRAM_STATE_RESET;
 243:Drivers/STM32F1xx_HAL_Driver/Src/stm32f1xx_hal_sram.c **** 
 244:Drivers/STM32F1xx_HAL_Driver/Src/stm32f1xx_hal_sram.c ****   /* Release Lock */
 245:Drivers/STM32F1xx_HAL_Driver/Src/stm32f1xx_hal_sram.c ****   __HAL_UNLOCK(hsram);
 246:Drivers/STM32F1xx_HAL_Driver/Src/stm32f1xx_hal_sram.c **** 
 247:Drivers/STM32F1xx_HAL_Driver/Src/stm32f1xx_hal_sram.c ****   return HAL_OK;
 248:Drivers/STM32F1xx_HAL_Driver/Src/stm32f1xx_hal_sram.c **** }
 249:Drivers/STM32F1xx_HAL_Driver/Src/stm32f1xx_hal_sram.c **** 
 250:Drivers/STM32F1xx_HAL_Driver/Src/stm32f1xx_hal_sram.c **** /**
 251:Drivers/STM32F1xx_HAL_Driver/Src/stm32f1xx_hal_sram.c ****   * @brief  SRAM MSP Init.
 252:Drivers/STM32F1xx_HAL_Driver/Src/stm32f1xx_hal_sram.c ****   * @param  hsram pointer to a SRAM_HandleTypeDef structure that contains
 253:Drivers/STM32F1xx_HAL_Driver/Src/stm32f1xx_hal_sram.c ****   *                the configuration information for SRAM module.
 254:Drivers/STM32F1xx_HAL_Driver/Src/stm32f1xx_hal_sram.c ****   * @retval None
 255:Drivers/STM32F1xx_HAL_Driver/Src/stm32f1xx_hal_sram.c ****   */
 256:Drivers/STM32F1xx_HAL_Driver/Src/stm32f1xx_hal_sram.c **** __weak void HAL_SRAM_MspInit(SRAM_HandleTypeDef *hsram)
 257:Drivers/STM32F1xx_HAL_Driver/Src/stm32f1xx_hal_sram.c **** {
  28              		.loc 1 257 1 view -0
  29              		.cfi_startproc
ARM GAS  /tmp/ccxFNFiG.s 			page 6


  30              		@ args = 0, pretend = 0, frame = 0
  31              		@ frame_needed = 0, uses_anonymous_args = 0
  32              		@ link register save eliminated.
 258:Drivers/STM32F1xx_HAL_Driver/Src/stm32f1xx_hal_sram.c ****   /* Prevent unused argument(s) compilation warning */
 259:Drivers/STM32F1xx_HAL_Driver/Src/stm32f1xx_hal_sram.c ****   UNUSED(hsram);
  33              		.loc 1 259 3 view .LVU1
 260:Drivers/STM32F1xx_HAL_Driver/Src/stm32f1xx_hal_sram.c **** 
 261:Drivers/STM32F1xx_HAL_Driver/Src/stm32f1xx_hal_sram.c ****   /* NOTE : This function Should not be modified, when the callback is needed,
 262:Drivers/STM32F1xx_HAL_Driver/Src/stm32f1xx_hal_sram.c ****             the HAL_SRAM_MspInit could be implemented in the user file
 263:Drivers/STM32F1xx_HAL_Driver/Src/stm32f1xx_hal_sram.c ****    */
 264:Drivers/STM32F1xx_HAL_Driver/Src/stm32f1xx_hal_sram.c **** }
  34              		.loc 1 264 1 is_stmt 0 view .LVU2
  35 0000 7047     		bx	lr
  36              		.cfi_endproc
  37              	.LFE67:
  39              		.section	.text.HAL_SRAM_Init,"ax",%progbits
  40              		.align	1
  41              		.global	HAL_SRAM_Init
  42              		.syntax unified
  43              		.thumb
  44              		.thumb_func
  46              	HAL_SRAM_Init:
  47              	.LVL1:
  48              	.LFB65:
 170:Drivers/STM32F1xx_HAL_Driver/Src/stm32f1xx_hal_sram.c ****   /* Check the SRAM handle parameter */
  49              		.loc 1 170 1 is_stmt 1 view -0
  50              		.cfi_startproc
  51              		@ args = 0, pretend = 0, frame = 0
  52              		@ frame_needed = 0, uses_anonymous_args = 0
 172:Drivers/STM32F1xx_HAL_Driver/Src/stm32f1xx_hal_sram.c ****   {
  53              		.loc 1 172 3 view .LVU4
 172:Drivers/STM32F1xx_HAL_Driver/Src/stm32f1xx_hal_sram.c ****   {
  54              		.loc 1 172 6 is_stmt 0 view .LVU5
  55 0000 60B3     		cbz	r0, .L5
 170:Drivers/STM32F1xx_HAL_Driver/Src/stm32f1xx_hal_sram.c ****   /* Check the SRAM handle parameter */
  56              		.loc 1 170 1 discriminator 1 view .LVU6
  57 0002 70B5     		push	{r4, r5, r6, lr}
  58              	.LCFI0:
  59              		.cfi_def_cfa_offset 16
  60              		.cfi_offset 4, -16
  61              		.cfi_offset 5, -12
  62              		.cfi_offset 6, -8
  63              		.cfi_offset 14, -4
  64 0004 0E46     		mov	r6, r1
  65 0006 1546     		mov	r5, r2
  66 0008 0446     		mov	r4, r0
 172:Drivers/STM32F1xx_HAL_Driver/Src/stm32f1xx_hal_sram.c ****   {
  67              		.loc 1 172 38 discriminator 1 view .LVU7
  68 000a 8369     		ldr	r3, [r0, #24]
 172:Drivers/STM32F1xx_HAL_Driver/Src/stm32f1xx_hal_sram.c ****   {
  69              		.loc 1 172 23 discriminator 1 view .LVU8
  70 000c B3F5807F 		cmp	r3, #256
  71 0010 26D0     		beq	.L6
 177:Drivers/STM32F1xx_HAL_Driver/Src/stm32f1xx_hal_sram.c ****   {
  72              		.loc 1 177 3 is_stmt 1 view .LVU9
 177:Drivers/STM32F1xx_HAL_Driver/Src/stm32f1xx_hal_sram.c ****   {
  73              		.loc 1 177 12 is_stmt 0 view .LVU10
ARM GAS  /tmp/ccxFNFiG.s 			page 7


  74 0012 90F84130 		ldrb	r3, [r0, #65]	@ zero_extendqisi2
 177:Drivers/STM32F1xx_HAL_Driver/Src/stm32f1xx_hal_sram.c ****   {
  75              		.loc 1 177 6 view .LVU11
  76 0016 E3B1     		cbz	r3, .L11
  77              	.LVL2:
  78              	.L4:
 199:Drivers/STM32F1xx_HAL_Driver/Src/stm32f1xx_hal_sram.c **** 
  79              		.loc 1 199 3 is_stmt 1 view .LVU12
 199:Drivers/STM32F1xx_HAL_Driver/Src/stm32f1xx_hal_sram.c **** 
  80              		.loc 1 199 9 is_stmt 0 view .LVU13
  81 0018 2146     		mov	r1, r4
  82 001a 51F8080B 		ldr	r0, [r1], #8
  83 001e FFF7FEFF 		bl	FSMC_NORSRAM_Init
  84              	.LVL3:
 202:Drivers/STM32F1xx_HAL_Driver/Src/stm32f1xx_hal_sram.c **** 
  85              		.loc 1 202 3 is_stmt 1 view .LVU14
 202:Drivers/STM32F1xx_HAL_Driver/Src/stm32f1xx_hal_sram.c **** 
  86              		.loc 1 202 9 is_stmt 0 view .LVU15
  87 0022 A268     		ldr	r2, [r4, #8]
  88 0024 3146     		mov	r1, r6
  89 0026 2068     		ldr	r0, [r4]
  90 0028 FFF7FEFF 		bl	FSMC_NORSRAM_Timing_Init
  91              	.LVL4:
 205:Drivers/STM32F1xx_HAL_Driver/Src/stm32f1xx_hal_sram.c ****                                          hsram->Init.ExtendedMode);
  92              		.loc 1 205 3 is_stmt 1 view .LVU16
 205:Drivers/STM32F1xx_HAL_Driver/Src/stm32f1xx_hal_sram.c ****                                          hsram->Init.ExtendedMode);
  93              		.loc 1 205 9 is_stmt 0 view .LVU17
  94 002c 236B     		ldr	r3, [r4, #48]
  95 002e A268     		ldr	r2, [r4, #8]
  96 0030 2946     		mov	r1, r5
  97 0032 6068     		ldr	r0, [r4, #4]
  98 0034 FFF7FEFF 		bl	FSMC_NORSRAM_Extended_Timing_Init
  99              	.LVL5:
 209:Drivers/STM32F1xx_HAL_Driver/Src/stm32f1xx_hal_sram.c **** 
 100              		.loc 1 209 3 is_stmt 1 view .LVU18
 101 0038 2268     		ldr	r2, [r4]
 102 003a A168     		ldr	r1, [r4, #8]
 103 003c 52F82130 		ldr	r3, [r2, r1, lsl #2]
 104 0040 43F00103 		orr	r3, r3, #1
 105 0044 42F82130 		str	r3, [r2, r1, lsl #2]
 212:Drivers/STM32F1xx_HAL_Driver/Src/stm32f1xx_hal_sram.c **** 
 106              		.loc 1 212 3 view .LVU19
 212:Drivers/STM32F1xx_HAL_Driver/Src/stm32f1xx_hal_sram.c **** 
 107              		.loc 1 212 16 is_stmt 0 view .LVU20
 108 0048 0123     		movs	r3, #1
 109 004a 84F84130 		strb	r3, [r4, #65]
 214:Drivers/STM32F1xx_HAL_Driver/Src/stm32f1xx_hal_sram.c **** }
 110              		.loc 1 214 3 is_stmt 1 view .LVU21
 214:Drivers/STM32F1xx_HAL_Driver/Src/stm32f1xx_hal_sram.c **** }
 111              		.loc 1 214 10 is_stmt 0 view .LVU22
 112 004e 0020     		movs	r0, #0
 113              	.L3:
 215:Drivers/STM32F1xx_HAL_Driver/Src/stm32f1xx_hal_sram.c **** 
 114              		.loc 1 215 1 view .LVU23
 115 0050 70BD     		pop	{r4, r5, r6, pc}
 116              	.LVL6:
 117              	.L11:
ARM GAS  /tmp/ccxFNFiG.s 			page 8


 180:Drivers/STM32F1xx_HAL_Driver/Src/stm32f1xx_hal_sram.c **** 
 118              		.loc 1 180 5 is_stmt 1 view .LVU24
 180:Drivers/STM32F1xx_HAL_Driver/Src/stm32f1xx_hal_sram.c **** 
 119              		.loc 1 180 17 is_stmt 0 view .LVU25
 120 0052 80F84030 		strb	r3, [r0, #64]
 194:Drivers/STM32F1xx_HAL_Driver/Src/stm32f1xx_hal_sram.c **** #endif /* USE_HAL_SRAM_REGISTER_CALLBACKS */
 121              		.loc 1 194 5 is_stmt 1 view .LVU26
 122 0056 FFF7FEFF 		bl	HAL_SRAM_MspInit
 123              	.LVL7:
 194:Drivers/STM32F1xx_HAL_Driver/Src/stm32f1xx_hal_sram.c **** #endif /* USE_HAL_SRAM_REGISTER_CALLBACKS */
 124              		.loc 1 194 5 is_stmt 0 view .LVU27
 125 005a DDE7     		b	.L4
 126              	.LVL8:
 127              	.L5:
 128              	.LCFI1:
 129              		.cfi_def_cfa_offset 0
 130              		.cfi_restore 4
 131              		.cfi_restore 5
 132              		.cfi_restore 6
 133              		.cfi_restore 14
 174:Drivers/STM32F1xx_HAL_Driver/Src/stm32f1xx_hal_sram.c ****   }
 134              		.loc 1 174 12 view .LVU28
 135 005c 0120     		movs	r0, #1
 136              	.LVL9:
 215:Drivers/STM32F1xx_HAL_Driver/Src/stm32f1xx_hal_sram.c **** 
 137              		.loc 1 215 1 view .LVU29
 138 005e 7047     		bx	lr
 139              	.LVL10:
 140              	.L6:
 141              	.LCFI2:
 142              		.cfi_def_cfa_offset 16
 143              		.cfi_offset 4, -16
 144              		.cfi_offset 5, -12
 145              		.cfi_offset 6, -8
 146              		.cfi_offset 14, -4
 174:Drivers/STM32F1xx_HAL_Driver/Src/stm32f1xx_hal_sram.c ****   }
 147              		.loc 1 174 12 view .LVU30
 148 0060 0120     		movs	r0, #1
 149              	.LVL11:
 174:Drivers/STM32F1xx_HAL_Driver/Src/stm32f1xx_hal_sram.c ****   }
 150              		.loc 1 174 12 view .LVU31
 151 0062 F5E7     		b	.L3
 152              		.cfi_endproc
 153              	.LFE65:
 155              		.section	.text.HAL_SRAM_MspDeInit,"ax",%progbits
 156              		.align	1
 157              		.weak	HAL_SRAM_MspDeInit
 158              		.syntax unified
 159              		.thumb
 160              		.thumb_func
 162              	HAL_SRAM_MspDeInit:
 163              	.LVL12:
 164              	.LFB68:
 265:Drivers/STM32F1xx_HAL_Driver/Src/stm32f1xx_hal_sram.c **** 
 266:Drivers/STM32F1xx_HAL_Driver/Src/stm32f1xx_hal_sram.c **** /**
 267:Drivers/STM32F1xx_HAL_Driver/Src/stm32f1xx_hal_sram.c ****   * @brief  SRAM MSP DeInit.
 268:Drivers/STM32F1xx_HAL_Driver/Src/stm32f1xx_hal_sram.c ****   * @param  hsram pointer to a SRAM_HandleTypeDef structure that contains
ARM GAS  /tmp/ccxFNFiG.s 			page 9


 269:Drivers/STM32F1xx_HAL_Driver/Src/stm32f1xx_hal_sram.c ****   *                the configuration information for SRAM module.
 270:Drivers/STM32F1xx_HAL_Driver/Src/stm32f1xx_hal_sram.c ****   * @retval None
 271:Drivers/STM32F1xx_HAL_Driver/Src/stm32f1xx_hal_sram.c ****   */
 272:Drivers/STM32F1xx_HAL_Driver/Src/stm32f1xx_hal_sram.c **** __weak void HAL_SRAM_MspDeInit(SRAM_HandleTypeDef *hsram)
 273:Drivers/STM32F1xx_HAL_Driver/Src/stm32f1xx_hal_sram.c **** {
 165              		.loc 1 273 1 is_stmt 1 view -0
 166              		.cfi_startproc
 167              		@ args = 0, pretend = 0, frame = 0
 168              		@ frame_needed = 0, uses_anonymous_args = 0
 169              		@ link register save eliminated.
 274:Drivers/STM32F1xx_HAL_Driver/Src/stm32f1xx_hal_sram.c ****   /* Prevent unused argument(s) compilation warning */
 275:Drivers/STM32F1xx_HAL_Driver/Src/stm32f1xx_hal_sram.c ****   UNUSED(hsram);
 170              		.loc 1 275 3 view .LVU33
 276:Drivers/STM32F1xx_HAL_Driver/Src/stm32f1xx_hal_sram.c **** 
 277:Drivers/STM32F1xx_HAL_Driver/Src/stm32f1xx_hal_sram.c ****   /* NOTE : This function Should not be modified, when the callback is needed,
 278:Drivers/STM32F1xx_HAL_Driver/Src/stm32f1xx_hal_sram.c ****             the HAL_SRAM_MspDeInit could be implemented in the user file
 279:Drivers/STM32F1xx_HAL_Driver/Src/stm32f1xx_hal_sram.c ****    */
 280:Drivers/STM32F1xx_HAL_Driver/Src/stm32f1xx_hal_sram.c **** }
 171              		.loc 1 280 1 is_stmt 0 view .LVU34
 172 0000 7047     		bx	lr
 173              		.cfi_endproc
 174              	.LFE68:
 176              		.section	.text.HAL_SRAM_DeInit,"ax",%progbits
 177              		.align	1
 178              		.global	HAL_SRAM_DeInit
 179              		.syntax unified
 180              		.thumb
 181              		.thumb_func
 183              	HAL_SRAM_DeInit:
 184              	.LVL13:
 185              	.LFB66:
 224:Drivers/STM32F1xx_HAL_Driver/Src/stm32f1xx_hal_sram.c **** #if (USE_HAL_SRAM_REGISTER_CALLBACKS == 1)
 186              		.loc 1 224 1 is_stmt 1 view -0
 187              		.cfi_startproc
 188              		@ args = 0, pretend = 0, frame = 0
 189              		@ frame_needed = 0, uses_anonymous_args = 0
 224:Drivers/STM32F1xx_HAL_Driver/Src/stm32f1xx_hal_sram.c **** #if (USE_HAL_SRAM_REGISTER_CALLBACKS == 1)
 190              		.loc 1 224 1 is_stmt 0 view .LVU36
 191 0000 10B5     		push	{r4, lr}
 192              	.LCFI3:
 193              		.cfi_def_cfa_offset 8
 194              		.cfi_offset 4, -8
 195              		.cfi_offset 14, -4
 196 0002 0446     		mov	r4, r0
 235:Drivers/STM32F1xx_HAL_Driver/Src/stm32f1xx_hal_sram.c **** #endif /* USE_HAL_SRAM_REGISTER_CALLBACKS */
 197              		.loc 1 235 3 is_stmt 1 view .LVU37
 198 0004 FFF7FEFF 		bl	HAL_SRAM_MspDeInit
 199              	.LVL14:
 239:Drivers/STM32F1xx_HAL_Driver/Src/stm32f1xx_hal_sram.c **** 
 200              		.loc 1 239 3 view .LVU38
 239:Drivers/STM32F1xx_HAL_Driver/Src/stm32f1xx_hal_sram.c **** 
 201              		.loc 1 239 9 is_stmt 0 view .LVU39
 202 0008 A268     		ldr	r2, [r4, #8]
 203 000a 6168     		ldr	r1, [r4, #4]
 204 000c 2068     		ldr	r0, [r4]
 205 000e FFF7FEFF 		bl	FSMC_NORSRAM_DeInit
 206              	.LVL15:
ARM GAS  /tmp/ccxFNFiG.s 			page 10


 242:Drivers/STM32F1xx_HAL_Driver/Src/stm32f1xx_hal_sram.c **** 
 207              		.loc 1 242 3 is_stmt 1 view .LVU40
 242:Drivers/STM32F1xx_HAL_Driver/Src/stm32f1xx_hal_sram.c **** 
 208              		.loc 1 242 16 is_stmt 0 view .LVU41
 209 0012 0020     		movs	r0, #0
 210 0014 84F84100 		strb	r0, [r4, #65]
 245:Drivers/STM32F1xx_HAL_Driver/Src/stm32f1xx_hal_sram.c **** 
 211              		.loc 1 245 3 is_stmt 1 view .LVU42
 245:Drivers/STM32F1xx_HAL_Driver/Src/stm32f1xx_hal_sram.c **** 
 212              		.loc 1 245 3 view .LVU43
 213 0018 84F84000 		strb	r0, [r4, #64]
 245:Drivers/STM32F1xx_HAL_Driver/Src/stm32f1xx_hal_sram.c **** 
 214              		.loc 1 245 3 view .LVU44
 247:Drivers/STM32F1xx_HAL_Driver/Src/stm32f1xx_hal_sram.c **** }
 215              		.loc 1 247 3 view .LVU45
 248:Drivers/STM32F1xx_HAL_Driver/Src/stm32f1xx_hal_sram.c **** 
 216              		.loc 1 248 1 is_stmt 0 view .LVU46
 217 001c 10BD     		pop	{r4, pc}
 248:Drivers/STM32F1xx_HAL_Driver/Src/stm32f1xx_hal_sram.c **** 
 218              		.loc 1 248 1 view .LVU47
 219              		.cfi_endproc
 220              	.LFE66:
 222              		.section	.text.HAL_SRAM_DMA_XferCpltCallback,"ax",%progbits
 223              		.align	1
 224              		.weak	HAL_SRAM_DMA_XferCpltCallback
 225              		.syntax unified
 226              		.thumb
 227              		.thumb_func
 229              	HAL_SRAM_DMA_XferCpltCallback:
 230              	.LVL16:
 231              	.LFB69:
 281:Drivers/STM32F1xx_HAL_Driver/Src/stm32f1xx_hal_sram.c **** 
 282:Drivers/STM32F1xx_HAL_Driver/Src/stm32f1xx_hal_sram.c **** /**
 283:Drivers/STM32F1xx_HAL_Driver/Src/stm32f1xx_hal_sram.c ****   * @brief  DMA transfer complete callback.
 284:Drivers/STM32F1xx_HAL_Driver/Src/stm32f1xx_hal_sram.c ****   * @param  hdma pointer to a SRAM_HandleTypeDef structure that contains
 285:Drivers/STM32F1xx_HAL_Driver/Src/stm32f1xx_hal_sram.c ****   *                the configuration information for SRAM module.
 286:Drivers/STM32F1xx_HAL_Driver/Src/stm32f1xx_hal_sram.c ****   * @retval None
 287:Drivers/STM32F1xx_HAL_Driver/Src/stm32f1xx_hal_sram.c ****   */
 288:Drivers/STM32F1xx_HAL_Driver/Src/stm32f1xx_hal_sram.c **** __weak void HAL_SRAM_DMA_XferCpltCallback(DMA_HandleTypeDef *hdma)
 289:Drivers/STM32F1xx_HAL_Driver/Src/stm32f1xx_hal_sram.c **** {
 232              		.loc 1 289 1 is_stmt 1 view -0
 233              		.cfi_startproc
 234              		@ args = 0, pretend = 0, frame = 0
 235              		@ frame_needed = 0, uses_anonymous_args = 0
 236              		@ link register save eliminated.
 290:Drivers/STM32F1xx_HAL_Driver/Src/stm32f1xx_hal_sram.c ****   /* Prevent unused argument(s) compilation warning */
 291:Drivers/STM32F1xx_HAL_Driver/Src/stm32f1xx_hal_sram.c ****   UNUSED(hdma);
 237              		.loc 1 291 3 view .LVU49
 292:Drivers/STM32F1xx_HAL_Driver/Src/stm32f1xx_hal_sram.c **** 
 293:Drivers/STM32F1xx_HAL_Driver/Src/stm32f1xx_hal_sram.c ****   /* NOTE : This function Should not be modified, when the callback is needed,
 294:Drivers/STM32F1xx_HAL_Driver/Src/stm32f1xx_hal_sram.c ****             the HAL_SRAM_DMA_XferCpltCallback could be implemented in the user file
 295:Drivers/STM32F1xx_HAL_Driver/Src/stm32f1xx_hal_sram.c ****    */
 296:Drivers/STM32F1xx_HAL_Driver/Src/stm32f1xx_hal_sram.c **** }
 238              		.loc 1 296 1 is_stmt 0 view .LVU50
 239 0000 7047     		bx	lr
 240              		.cfi_endproc
 241              	.LFE69:
ARM GAS  /tmp/ccxFNFiG.s 			page 11


 243              		.section	.text.SRAM_DMACpltProt,"ax",%progbits
 244              		.align	1
 245              		.syntax unified
 246              		.thumb
 247              		.thumb_func
 249              	SRAM_DMACpltProt:
 250              	.LVL17:
 251              	.LFB83:
 297:Drivers/STM32F1xx_HAL_Driver/Src/stm32f1xx_hal_sram.c **** 
 298:Drivers/STM32F1xx_HAL_Driver/Src/stm32f1xx_hal_sram.c **** /**
 299:Drivers/STM32F1xx_HAL_Driver/Src/stm32f1xx_hal_sram.c ****   * @brief  DMA transfer complete error callback.
 300:Drivers/STM32F1xx_HAL_Driver/Src/stm32f1xx_hal_sram.c ****   * @param  hdma pointer to a SRAM_HandleTypeDef structure that contains
 301:Drivers/STM32F1xx_HAL_Driver/Src/stm32f1xx_hal_sram.c ****   *                the configuration information for SRAM module.
 302:Drivers/STM32F1xx_HAL_Driver/Src/stm32f1xx_hal_sram.c ****   * @retval None
 303:Drivers/STM32F1xx_HAL_Driver/Src/stm32f1xx_hal_sram.c ****   */
 304:Drivers/STM32F1xx_HAL_Driver/Src/stm32f1xx_hal_sram.c **** __weak void HAL_SRAM_DMA_XferErrorCallback(DMA_HandleTypeDef *hdma)
 305:Drivers/STM32F1xx_HAL_Driver/Src/stm32f1xx_hal_sram.c **** {
 306:Drivers/STM32F1xx_HAL_Driver/Src/stm32f1xx_hal_sram.c ****   /* Prevent unused argument(s) compilation warning */
 307:Drivers/STM32F1xx_HAL_Driver/Src/stm32f1xx_hal_sram.c ****   UNUSED(hdma);
 308:Drivers/STM32F1xx_HAL_Driver/Src/stm32f1xx_hal_sram.c **** 
 309:Drivers/STM32F1xx_HAL_Driver/Src/stm32f1xx_hal_sram.c ****   /* NOTE : This function Should not be modified, when the callback is needed,
 310:Drivers/STM32F1xx_HAL_Driver/Src/stm32f1xx_hal_sram.c ****             the HAL_SRAM_DMA_XferErrorCallback could be implemented in the user file
 311:Drivers/STM32F1xx_HAL_Driver/Src/stm32f1xx_hal_sram.c ****    */
 312:Drivers/STM32F1xx_HAL_Driver/Src/stm32f1xx_hal_sram.c **** }
 313:Drivers/STM32F1xx_HAL_Driver/Src/stm32f1xx_hal_sram.c **** 
 314:Drivers/STM32F1xx_HAL_Driver/Src/stm32f1xx_hal_sram.c **** /**
 315:Drivers/STM32F1xx_HAL_Driver/Src/stm32f1xx_hal_sram.c ****   * @}
 316:Drivers/STM32F1xx_HAL_Driver/Src/stm32f1xx_hal_sram.c ****   */
 317:Drivers/STM32F1xx_HAL_Driver/Src/stm32f1xx_hal_sram.c **** 
 318:Drivers/STM32F1xx_HAL_Driver/Src/stm32f1xx_hal_sram.c **** /** @defgroup SRAM_Exported_Functions_Group2 Input Output and memory control functions
 319:Drivers/STM32F1xx_HAL_Driver/Src/stm32f1xx_hal_sram.c ****   * @brief    Input Output and memory control functions
 320:Drivers/STM32F1xx_HAL_Driver/Src/stm32f1xx_hal_sram.c ****   *
 321:Drivers/STM32F1xx_HAL_Driver/Src/stm32f1xx_hal_sram.c ****   @verbatim
 322:Drivers/STM32F1xx_HAL_Driver/Src/stm32f1xx_hal_sram.c ****   ==============================================================================
 323:Drivers/STM32F1xx_HAL_Driver/Src/stm32f1xx_hal_sram.c ****                   ##### SRAM Input and Output functions #####
 324:Drivers/STM32F1xx_HAL_Driver/Src/stm32f1xx_hal_sram.c ****   ==============================================================================
 325:Drivers/STM32F1xx_HAL_Driver/Src/stm32f1xx_hal_sram.c ****   [..]
 326:Drivers/STM32F1xx_HAL_Driver/Src/stm32f1xx_hal_sram.c ****     This section provides functions allowing to use and control the SRAM memory
 327:Drivers/STM32F1xx_HAL_Driver/Src/stm32f1xx_hal_sram.c **** 
 328:Drivers/STM32F1xx_HAL_Driver/Src/stm32f1xx_hal_sram.c **** @endverbatim
 329:Drivers/STM32F1xx_HAL_Driver/Src/stm32f1xx_hal_sram.c ****   * @{
 330:Drivers/STM32F1xx_HAL_Driver/Src/stm32f1xx_hal_sram.c ****   */
 331:Drivers/STM32F1xx_HAL_Driver/Src/stm32f1xx_hal_sram.c **** 
 332:Drivers/STM32F1xx_HAL_Driver/Src/stm32f1xx_hal_sram.c **** /**
 333:Drivers/STM32F1xx_HAL_Driver/Src/stm32f1xx_hal_sram.c ****   * @brief  Reads 8-bit buffer from SRAM memory.
 334:Drivers/STM32F1xx_HAL_Driver/Src/stm32f1xx_hal_sram.c ****   * @param  hsram pointer to a SRAM_HandleTypeDef structure that contains
 335:Drivers/STM32F1xx_HAL_Driver/Src/stm32f1xx_hal_sram.c ****   *                the configuration information for SRAM module.
 336:Drivers/STM32F1xx_HAL_Driver/Src/stm32f1xx_hal_sram.c ****   * @param  pAddress Pointer to read start address
 337:Drivers/STM32F1xx_HAL_Driver/Src/stm32f1xx_hal_sram.c ****   * @param  pDstBuffer Pointer to destination buffer
 338:Drivers/STM32F1xx_HAL_Driver/Src/stm32f1xx_hal_sram.c ****   * @param  BufferSize Size of the buffer to read from memory
 339:Drivers/STM32F1xx_HAL_Driver/Src/stm32f1xx_hal_sram.c ****   * @retval HAL status
 340:Drivers/STM32F1xx_HAL_Driver/Src/stm32f1xx_hal_sram.c ****   */
 341:Drivers/STM32F1xx_HAL_Driver/Src/stm32f1xx_hal_sram.c **** HAL_StatusTypeDef HAL_SRAM_Read_8b(SRAM_HandleTypeDef *hsram, uint32_t *pAddress, uint8_t *pDstBuff
 342:Drivers/STM32F1xx_HAL_Driver/Src/stm32f1xx_hal_sram.c ****                                    uint32_t BufferSize)
 343:Drivers/STM32F1xx_HAL_Driver/Src/stm32f1xx_hal_sram.c **** {
 344:Drivers/STM32F1xx_HAL_Driver/Src/stm32f1xx_hal_sram.c ****   uint32_t size;
 345:Drivers/STM32F1xx_HAL_Driver/Src/stm32f1xx_hal_sram.c ****   __IO uint8_t *psramaddress = (uint8_t *)pAddress;
ARM GAS  /tmp/ccxFNFiG.s 			page 12


 346:Drivers/STM32F1xx_HAL_Driver/Src/stm32f1xx_hal_sram.c ****   uint8_t *pdestbuff = pDstBuffer;
 347:Drivers/STM32F1xx_HAL_Driver/Src/stm32f1xx_hal_sram.c ****   HAL_SRAM_StateTypeDef state = hsram->State;
 348:Drivers/STM32F1xx_HAL_Driver/Src/stm32f1xx_hal_sram.c **** 
 349:Drivers/STM32F1xx_HAL_Driver/Src/stm32f1xx_hal_sram.c ****   /* Check the SRAM controller state */
 350:Drivers/STM32F1xx_HAL_Driver/Src/stm32f1xx_hal_sram.c ****   if ((state == HAL_SRAM_STATE_READY) || (state == HAL_SRAM_STATE_PROTECTED))
 351:Drivers/STM32F1xx_HAL_Driver/Src/stm32f1xx_hal_sram.c ****   {
 352:Drivers/STM32F1xx_HAL_Driver/Src/stm32f1xx_hal_sram.c ****     /* Process Locked */
 353:Drivers/STM32F1xx_HAL_Driver/Src/stm32f1xx_hal_sram.c ****     __HAL_LOCK(hsram);
 354:Drivers/STM32F1xx_HAL_Driver/Src/stm32f1xx_hal_sram.c **** 
 355:Drivers/STM32F1xx_HAL_Driver/Src/stm32f1xx_hal_sram.c ****     /* Update the SRAM controller state */
 356:Drivers/STM32F1xx_HAL_Driver/Src/stm32f1xx_hal_sram.c ****     hsram->State = HAL_SRAM_STATE_BUSY;
 357:Drivers/STM32F1xx_HAL_Driver/Src/stm32f1xx_hal_sram.c **** 
 358:Drivers/STM32F1xx_HAL_Driver/Src/stm32f1xx_hal_sram.c ****     /* Read data from memory */
 359:Drivers/STM32F1xx_HAL_Driver/Src/stm32f1xx_hal_sram.c ****     for (size = BufferSize; size != 0U; size--)
 360:Drivers/STM32F1xx_HAL_Driver/Src/stm32f1xx_hal_sram.c ****     {
 361:Drivers/STM32F1xx_HAL_Driver/Src/stm32f1xx_hal_sram.c ****       *pdestbuff = *psramaddress;
 362:Drivers/STM32F1xx_HAL_Driver/Src/stm32f1xx_hal_sram.c ****       pdestbuff++;
 363:Drivers/STM32F1xx_HAL_Driver/Src/stm32f1xx_hal_sram.c ****       psramaddress++;
 364:Drivers/STM32F1xx_HAL_Driver/Src/stm32f1xx_hal_sram.c ****     }
 365:Drivers/STM32F1xx_HAL_Driver/Src/stm32f1xx_hal_sram.c **** 
 366:Drivers/STM32F1xx_HAL_Driver/Src/stm32f1xx_hal_sram.c ****     /* Update the SRAM controller state */
 367:Drivers/STM32F1xx_HAL_Driver/Src/stm32f1xx_hal_sram.c ****     hsram->State = state;
 368:Drivers/STM32F1xx_HAL_Driver/Src/stm32f1xx_hal_sram.c **** 
 369:Drivers/STM32F1xx_HAL_Driver/Src/stm32f1xx_hal_sram.c ****     /* Process unlocked */
 370:Drivers/STM32F1xx_HAL_Driver/Src/stm32f1xx_hal_sram.c ****     __HAL_UNLOCK(hsram);
 371:Drivers/STM32F1xx_HAL_Driver/Src/stm32f1xx_hal_sram.c ****   }
 372:Drivers/STM32F1xx_HAL_Driver/Src/stm32f1xx_hal_sram.c ****   else
 373:Drivers/STM32F1xx_HAL_Driver/Src/stm32f1xx_hal_sram.c ****   {
 374:Drivers/STM32F1xx_HAL_Driver/Src/stm32f1xx_hal_sram.c ****     return HAL_ERROR;
 375:Drivers/STM32F1xx_HAL_Driver/Src/stm32f1xx_hal_sram.c ****   }
 376:Drivers/STM32F1xx_HAL_Driver/Src/stm32f1xx_hal_sram.c **** 
 377:Drivers/STM32F1xx_HAL_Driver/Src/stm32f1xx_hal_sram.c ****   return HAL_OK;
 378:Drivers/STM32F1xx_HAL_Driver/Src/stm32f1xx_hal_sram.c **** }
 379:Drivers/STM32F1xx_HAL_Driver/Src/stm32f1xx_hal_sram.c **** 
 380:Drivers/STM32F1xx_HAL_Driver/Src/stm32f1xx_hal_sram.c **** /**
 381:Drivers/STM32F1xx_HAL_Driver/Src/stm32f1xx_hal_sram.c ****   * @brief  Writes 8-bit buffer to SRAM memory.
 382:Drivers/STM32F1xx_HAL_Driver/Src/stm32f1xx_hal_sram.c ****   * @param  hsram pointer to a SRAM_HandleTypeDef structure that contains
 383:Drivers/STM32F1xx_HAL_Driver/Src/stm32f1xx_hal_sram.c ****   *                the configuration information for SRAM module.
 384:Drivers/STM32F1xx_HAL_Driver/Src/stm32f1xx_hal_sram.c ****   * @param  pAddress Pointer to write start address
 385:Drivers/STM32F1xx_HAL_Driver/Src/stm32f1xx_hal_sram.c ****   * @param  pSrcBuffer Pointer to source buffer to write
 386:Drivers/STM32F1xx_HAL_Driver/Src/stm32f1xx_hal_sram.c ****   * @param  BufferSize Size of the buffer to write to memory
 387:Drivers/STM32F1xx_HAL_Driver/Src/stm32f1xx_hal_sram.c ****   * @retval HAL status
 388:Drivers/STM32F1xx_HAL_Driver/Src/stm32f1xx_hal_sram.c ****   */
 389:Drivers/STM32F1xx_HAL_Driver/Src/stm32f1xx_hal_sram.c **** HAL_StatusTypeDef HAL_SRAM_Write_8b(SRAM_HandleTypeDef *hsram, uint32_t *pAddress, uint8_t *pSrcBuf
 390:Drivers/STM32F1xx_HAL_Driver/Src/stm32f1xx_hal_sram.c ****                                     uint32_t BufferSize)
 391:Drivers/STM32F1xx_HAL_Driver/Src/stm32f1xx_hal_sram.c **** {
 392:Drivers/STM32F1xx_HAL_Driver/Src/stm32f1xx_hal_sram.c ****   uint32_t size;
 393:Drivers/STM32F1xx_HAL_Driver/Src/stm32f1xx_hal_sram.c ****   __IO uint8_t *psramaddress = (uint8_t *)pAddress;
 394:Drivers/STM32F1xx_HAL_Driver/Src/stm32f1xx_hal_sram.c ****   uint8_t *psrcbuff = pSrcBuffer;
 395:Drivers/STM32F1xx_HAL_Driver/Src/stm32f1xx_hal_sram.c **** 
 396:Drivers/STM32F1xx_HAL_Driver/Src/stm32f1xx_hal_sram.c ****   /* Check the SRAM controller state */
 397:Drivers/STM32F1xx_HAL_Driver/Src/stm32f1xx_hal_sram.c ****   if (hsram->State == HAL_SRAM_STATE_READY)
 398:Drivers/STM32F1xx_HAL_Driver/Src/stm32f1xx_hal_sram.c ****   {
 399:Drivers/STM32F1xx_HAL_Driver/Src/stm32f1xx_hal_sram.c ****     /* Process Locked */
 400:Drivers/STM32F1xx_HAL_Driver/Src/stm32f1xx_hal_sram.c ****     __HAL_LOCK(hsram);
 401:Drivers/STM32F1xx_HAL_Driver/Src/stm32f1xx_hal_sram.c **** 
 402:Drivers/STM32F1xx_HAL_Driver/Src/stm32f1xx_hal_sram.c ****     /* Update the SRAM controller state */
ARM GAS  /tmp/ccxFNFiG.s 			page 13


 403:Drivers/STM32F1xx_HAL_Driver/Src/stm32f1xx_hal_sram.c ****     hsram->State = HAL_SRAM_STATE_BUSY;
 404:Drivers/STM32F1xx_HAL_Driver/Src/stm32f1xx_hal_sram.c **** 
 405:Drivers/STM32F1xx_HAL_Driver/Src/stm32f1xx_hal_sram.c ****     /* Write data to memory */
 406:Drivers/STM32F1xx_HAL_Driver/Src/stm32f1xx_hal_sram.c ****     for (size = BufferSize; size != 0U; size--)
 407:Drivers/STM32F1xx_HAL_Driver/Src/stm32f1xx_hal_sram.c ****     {
 408:Drivers/STM32F1xx_HAL_Driver/Src/stm32f1xx_hal_sram.c ****       *psramaddress = *psrcbuff;
 409:Drivers/STM32F1xx_HAL_Driver/Src/stm32f1xx_hal_sram.c ****       psrcbuff++;
 410:Drivers/STM32F1xx_HAL_Driver/Src/stm32f1xx_hal_sram.c ****       psramaddress++;
 411:Drivers/STM32F1xx_HAL_Driver/Src/stm32f1xx_hal_sram.c ****     }
 412:Drivers/STM32F1xx_HAL_Driver/Src/stm32f1xx_hal_sram.c **** 
 413:Drivers/STM32F1xx_HAL_Driver/Src/stm32f1xx_hal_sram.c ****     /* Update the SRAM controller state */
 414:Drivers/STM32F1xx_HAL_Driver/Src/stm32f1xx_hal_sram.c ****     hsram->State = HAL_SRAM_STATE_READY;
 415:Drivers/STM32F1xx_HAL_Driver/Src/stm32f1xx_hal_sram.c **** 
 416:Drivers/STM32F1xx_HAL_Driver/Src/stm32f1xx_hal_sram.c ****     /* Process unlocked */
 417:Drivers/STM32F1xx_HAL_Driver/Src/stm32f1xx_hal_sram.c ****     __HAL_UNLOCK(hsram);
 418:Drivers/STM32F1xx_HAL_Driver/Src/stm32f1xx_hal_sram.c ****   }
 419:Drivers/STM32F1xx_HAL_Driver/Src/stm32f1xx_hal_sram.c ****   else
 420:Drivers/STM32F1xx_HAL_Driver/Src/stm32f1xx_hal_sram.c ****   {
 421:Drivers/STM32F1xx_HAL_Driver/Src/stm32f1xx_hal_sram.c ****     return HAL_ERROR;
 422:Drivers/STM32F1xx_HAL_Driver/Src/stm32f1xx_hal_sram.c ****   }
 423:Drivers/STM32F1xx_HAL_Driver/Src/stm32f1xx_hal_sram.c **** 
 424:Drivers/STM32F1xx_HAL_Driver/Src/stm32f1xx_hal_sram.c ****   return HAL_OK;
 425:Drivers/STM32F1xx_HAL_Driver/Src/stm32f1xx_hal_sram.c **** }
 426:Drivers/STM32F1xx_HAL_Driver/Src/stm32f1xx_hal_sram.c **** 
 427:Drivers/STM32F1xx_HAL_Driver/Src/stm32f1xx_hal_sram.c **** /**
 428:Drivers/STM32F1xx_HAL_Driver/Src/stm32f1xx_hal_sram.c ****   * @brief  Reads 16-bit buffer from SRAM memory.
 429:Drivers/STM32F1xx_HAL_Driver/Src/stm32f1xx_hal_sram.c ****   * @param  hsram pointer to a SRAM_HandleTypeDef structure that contains
 430:Drivers/STM32F1xx_HAL_Driver/Src/stm32f1xx_hal_sram.c ****   *                the configuration information for SRAM module.
 431:Drivers/STM32F1xx_HAL_Driver/Src/stm32f1xx_hal_sram.c ****   * @param  pAddress Pointer to read start address
 432:Drivers/STM32F1xx_HAL_Driver/Src/stm32f1xx_hal_sram.c ****   * @param  pDstBuffer Pointer to destination buffer
 433:Drivers/STM32F1xx_HAL_Driver/Src/stm32f1xx_hal_sram.c ****   * @param  BufferSize Size of the buffer to read from memory
 434:Drivers/STM32F1xx_HAL_Driver/Src/stm32f1xx_hal_sram.c ****   * @retval HAL status
 435:Drivers/STM32F1xx_HAL_Driver/Src/stm32f1xx_hal_sram.c ****   */
 436:Drivers/STM32F1xx_HAL_Driver/Src/stm32f1xx_hal_sram.c **** HAL_StatusTypeDef HAL_SRAM_Read_16b(SRAM_HandleTypeDef *hsram, uint32_t *pAddress, uint16_t *pDstBu
 437:Drivers/STM32F1xx_HAL_Driver/Src/stm32f1xx_hal_sram.c ****                                     uint32_t BufferSize)
 438:Drivers/STM32F1xx_HAL_Driver/Src/stm32f1xx_hal_sram.c **** {
 439:Drivers/STM32F1xx_HAL_Driver/Src/stm32f1xx_hal_sram.c ****   uint32_t size;
 440:Drivers/STM32F1xx_HAL_Driver/Src/stm32f1xx_hal_sram.c ****   __IO uint32_t *psramaddress = pAddress;
 441:Drivers/STM32F1xx_HAL_Driver/Src/stm32f1xx_hal_sram.c ****   uint16_t *pdestbuff = pDstBuffer;
 442:Drivers/STM32F1xx_HAL_Driver/Src/stm32f1xx_hal_sram.c ****   uint8_t limit;
 443:Drivers/STM32F1xx_HAL_Driver/Src/stm32f1xx_hal_sram.c ****   HAL_SRAM_StateTypeDef state = hsram->State;
 444:Drivers/STM32F1xx_HAL_Driver/Src/stm32f1xx_hal_sram.c **** 
 445:Drivers/STM32F1xx_HAL_Driver/Src/stm32f1xx_hal_sram.c ****   /* Check the SRAM controller state */
 446:Drivers/STM32F1xx_HAL_Driver/Src/stm32f1xx_hal_sram.c ****   if ((state == HAL_SRAM_STATE_READY) || (state == HAL_SRAM_STATE_PROTECTED))
 447:Drivers/STM32F1xx_HAL_Driver/Src/stm32f1xx_hal_sram.c ****   {
 448:Drivers/STM32F1xx_HAL_Driver/Src/stm32f1xx_hal_sram.c ****     /* Process Locked */
 449:Drivers/STM32F1xx_HAL_Driver/Src/stm32f1xx_hal_sram.c ****     __HAL_LOCK(hsram);
 450:Drivers/STM32F1xx_HAL_Driver/Src/stm32f1xx_hal_sram.c **** 
 451:Drivers/STM32F1xx_HAL_Driver/Src/stm32f1xx_hal_sram.c ****     /* Update the SRAM controller state */
 452:Drivers/STM32F1xx_HAL_Driver/Src/stm32f1xx_hal_sram.c ****     hsram->State = HAL_SRAM_STATE_BUSY;
 453:Drivers/STM32F1xx_HAL_Driver/Src/stm32f1xx_hal_sram.c **** 
 454:Drivers/STM32F1xx_HAL_Driver/Src/stm32f1xx_hal_sram.c ****     /* Check if the size is a 32-bits multiple */
 455:Drivers/STM32F1xx_HAL_Driver/Src/stm32f1xx_hal_sram.c ****     limit = (((BufferSize % 2U) != 0U) ? 1U : 0U);
 456:Drivers/STM32F1xx_HAL_Driver/Src/stm32f1xx_hal_sram.c **** 
 457:Drivers/STM32F1xx_HAL_Driver/Src/stm32f1xx_hal_sram.c ****     /* Read data from memory */
 458:Drivers/STM32F1xx_HAL_Driver/Src/stm32f1xx_hal_sram.c ****     for (size = BufferSize; size != limit; size -= 2U)
 459:Drivers/STM32F1xx_HAL_Driver/Src/stm32f1xx_hal_sram.c ****     {
ARM GAS  /tmp/ccxFNFiG.s 			page 14


 460:Drivers/STM32F1xx_HAL_Driver/Src/stm32f1xx_hal_sram.c ****       *pdestbuff = (uint16_t)((*psramaddress) & 0x0000FFFFU);
 461:Drivers/STM32F1xx_HAL_Driver/Src/stm32f1xx_hal_sram.c ****       pdestbuff++;
 462:Drivers/STM32F1xx_HAL_Driver/Src/stm32f1xx_hal_sram.c ****       *pdestbuff = (uint16_t)(((*psramaddress) & 0xFFFF0000U) >> 16U);
 463:Drivers/STM32F1xx_HAL_Driver/Src/stm32f1xx_hal_sram.c ****       pdestbuff++;
 464:Drivers/STM32F1xx_HAL_Driver/Src/stm32f1xx_hal_sram.c ****       psramaddress++;
 465:Drivers/STM32F1xx_HAL_Driver/Src/stm32f1xx_hal_sram.c ****     }
 466:Drivers/STM32F1xx_HAL_Driver/Src/stm32f1xx_hal_sram.c **** 
 467:Drivers/STM32F1xx_HAL_Driver/Src/stm32f1xx_hal_sram.c ****     /* Read last 16-bits if size is not 32-bits multiple */
 468:Drivers/STM32F1xx_HAL_Driver/Src/stm32f1xx_hal_sram.c ****     if (limit != 0U)
 469:Drivers/STM32F1xx_HAL_Driver/Src/stm32f1xx_hal_sram.c ****     {
 470:Drivers/STM32F1xx_HAL_Driver/Src/stm32f1xx_hal_sram.c ****       *pdestbuff = (uint16_t)((*psramaddress) & 0x0000FFFFU);
 471:Drivers/STM32F1xx_HAL_Driver/Src/stm32f1xx_hal_sram.c ****     }
 472:Drivers/STM32F1xx_HAL_Driver/Src/stm32f1xx_hal_sram.c **** 
 473:Drivers/STM32F1xx_HAL_Driver/Src/stm32f1xx_hal_sram.c ****     /* Update the SRAM controller state */
 474:Drivers/STM32F1xx_HAL_Driver/Src/stm32f1xx_hal_sram.c ****     hsram->State = state;
 475:Drivers/STM32F1xx_HAL_Driver/Src/stm32f1xx_hal_sram.c **** 
 476:Drivers/STM32F1xx_HAL_Driver/Src/stm32f1xx_hal_sram.c ****     /* Process unlocked */
 477:Drivers/STM32F1xx_HAL_Driver/Src/stm32f1xx_hal_sram.c ****     __HAL_UNLOCK(hsram);
 478:Drivers/STM32F1xx_HAL_Driver/Src/stm32f1xx_hal_sram.c ****   }
 479:Drivers/STM32F1xx_HAL_Driver/Src/stm32f1xx_hal_sram.c ****   else
 480:Drivers/STM32F1xx_HAL_Driver/Src/stm32f1xx_hal_sram.c ****   {
 481:Drivers/STM32F1xx_HAL_Driver/Src/stm32f1xx_hal_sram.c ****     return HAL_ERROR;
 482:Drivers/STM32F1xx_HAL_Driver/Src/stm32f1xx_hal_sram.c ****   }
 483:Drivers/STM32F1xx_HAL_Driver/Src/stm32f1xx_hal_sram.c **** 
 484:Drivers/STM32F1xx_HAL_Driver/Src/stm32f1xx_hal_sram.c ****   return HAL_OK;
 485:Drivers/STM32F1xx_HAL_Driver/Src/stm32f1xx_hal_sram.c **** }
 486:Drivers/STM32F1xx_HAL_Driver/Src/stm32f1xx_hal_sram.c **** 
 487:Drivers/STM32F1xx_HAL_Driver/Src/stm32f1xx_hal_sram.c **** /**
 488:Drivers/STM32F1xx_HAL_Driver/Src/stm32f1xx_hal_sram.c ****   * @brief  Writes 16-bit buffer to SRAM memory.
 489:Drivers/STM32F1xx_HAL_Driver/Src/stm32f1xx_hal_sram.c ****   * @param  hsram pointer to a SRAM_HandleTypeDef structure that contains
 490:Drivers/STM32F1xx_HAL_Driver/Src/stm32f1xx_hal_sram.c ****   *                the configuration information for SRAM module.
 491:Drivers/STM32F1xx_HAL_Driver/Src/stm32f1xx_hal_sram.c ****   * @param  pAddress Pointer to write start address
 492:Drivers/STM32F1xx_HAL_Driver/Src/stm32f1xx_hal_sram.c ****   * @param  pSrcBuffer Pointer to source buffer to write
 493:Drivers/STM32F1xx_HAL_Driver/Src/stm32f1xx_hal_sram.c ****   * @param  BufferSize Size of the buffer to write to memory
 494:Drivers/STM32F1xx_HAL_Driver/Src/stm32f1xx_hal_sram.c ****   * @retval HAL status
 495:Drivers/STM32F1xx_HAL_Driver/Src/stm32f1xx_hal_sram.c ****   */
 496:Drivers/STM32F1xx_HAL_Driver/Src/stm32f1xx_hal_sram.c **** HAL_StatusTypeDef HAL_SRAM_Write_16b(SRAM_HandleTypeDef *hsram, uint32_t *pAddress, uint16_t *pSrcB
 497:Drivers/STM32F1xx_HAL_Driver/Src/stm32f1xx_hal_sram.c ****                                      uint32_t BufferSize)
 498:Drivers/STM32F1xx_HAL_Driver/Src/stm32f1xx_hal_sram.c **** {
 499:Drivers/STM32F1xx_HAL_Driver/Src/stm32f1xx_hal_sram.c ****   uint32_t size;
 500:Drivers/STM32F1xx_HAL_Driver/Src/stm32f1xx_hal_sram.c ****   __IO uint32_t *psramaddress = pAddress;
 501:Drivers/STM32F1xx_HAL_Driver/Src/stm32f1xx_hal_sram.c ****   uint16_t *psrcbuff = pSrcBuffer;
 502:Drivers/STM32F1xx_HAL_Driver/Src/stm32f1xx_hal_sram.c ****   uint8_t limit;
 503:Drivers/STM32F1xx_HAL_Driver/Src/stm32f1xx_hal_sram.c **** 
 504:Drivers/STM32F1xx_HAL_Driver/Src/stm32f1xx_hal_sram.c ****   /* Check the SRAM controller state */
 505:Drivers/STM32F1xx_HAL_Driver/Src/stm32f1xx_hal_sram.c ****   if (hsram->State == HAL_SRAM_STATE_READY)
 506:Drivers/STM32F1xx_HAL_Driver/Src/stm32f1xx_hal_sram.c ****   {
 507:Drivers/STM32F1xx_HAL_Driver/Src/stm32f1xx_hal_sram.c ****     /* Process Locked */
 508:Drivers/STM32F1xx_HAL_Driver/Src/stm32f1xx_hal_sram.c ****     __HAL_LOCK(hsram);
 509:Drivers/STM32F1xx_HAL_Driver/Src/stm32f1xx_hal_sram.c **** 
 510:Drivers/STM32F1xx_HAL_Driver/Src/stm32f1xx_hal_sram.c ****     /* Update the SRAM controller state */
 511:Drivers/STM32F1xx_HAL_Driver/Src/stm32f1xx_hal_sram.c ****     hsram->State = HAL_SRAM_STATE_BUSY;
 512:Drivers/STM32F1xx_HAL_Driver/Src/stm32f1xx_hal_sram.c **** 
 513:Drivers/STM32F1xx_HAL_Driver/Src/stm32f1xx_hal_sram.c ****     /* Check if the size is a 32-bits multiple */
 514:Drivers/STM32F1xx_HAL_Driver/Src/stm32f1xx_hal_sram.c ****     limit = (((BufferSize % 2U) != 0U) ? 1U : 0U);
 515:Drivers/STM32F1xx_HAL_Driver/Src/stm32f1xx_hal_sram.c **** 
 516:Drivers/STM32F1xx_HAL_Driver/Src/stm32f1xx_hal_sram.c ****     /* Write data to memory */
ARM GAS  /tmp/ccxFNFiG.s 			page 15


 517:Drivers/STM32F1xx_HAL_Driver/Src/stm32f1xx_hal_sram.c ****     for (size = BufferSize; size != limit; size -= 2U)
 518:Drivers/STM32F1xx_HAL_Driver/Src/stm32f1xx_hal_sram.c ****     {
 519:Drivers/STM32F1xx_HAL_Driver/Src/stm32f1xx_hal_sram.c ****       *psramaddress = (uint32_t)(*psrcbuff);
 520:Drivers/STM32F1xx_HAL_Driver/Src/stm32f1xx_hal_sram.c ****       psrcbuff++;
 521:Drivers/STM32F1xx_HAL_Driver/Src/stm32f1xx_hal_sram.c ****       *psramaddress |= ((uint32_t)(*psrcbuff) << 16U);
 522:Drivers/STM32F1xx_HAL_Driver/Src/stm32f1xx_hal_sram.c ****       psrcbuff++;
 523:Drivers/STM32F1xx_HAL_Driver/Src/stm32f1xx_hal_sram.c ****       psramaddress++;
 524:Drivers/STM32F1xx_HAL_Driver/Src/stm32f1xx_hal_sram.c ****     }
 525:Drivers/STM32F1xx_HAL_Driver/Src/stm32f1xx_hal_sram.c **** 
 526:Drivers/STM32F1xx_HAL_Driver/Src/stm32f1xx_hal_sram.c ****     /* Write last 16-bits if size is not 32-bits multiple */
 527:Drivers/STM32F1xx_HAL_Driver/Src/stm32f1xx_hal_sram.c ****     if (limit != 0U)
 528:Drivers/STM32F1xx_HAL_Driver/Src/stm32f1xx_hal_sram.c ****     {
 529:Drivers/STM32F1xx_HAL_Driver/Src/stm32f1xx_hal_sram.c ****       *psramaddress = ((uint32_t)(*psrcbuff) & 0x0000FFFFU) | ((*psramaddress) & 0xFFFF0000U);
 530:Drivers/STM32F1xx_HAL_Driver/Src/stm32f1xx_hal_sram.c ****     }
 531:Drivers/STM32F1xx_HAL_Driver/Src/stm32f1xx_hal_sram.c **** 
 532:Drivers/STM32F1xx_HAL_Driver/Src/stm32f1xx_hal_sram.c ****     /* Update the SRAM controller state */
 533:Drivers/STM32F1xx_HAL_Driver/Src/stm32f1xx_hal_sram.c ****     hsram->State = HAL_SRAM_STATE_READY;
 534:Drivers/STM32F1xx_HAL_Driver/Src/stm32f1xx_hal_sram.c **** 
 535:Drivers/STM32F1xx_HAL_Driver/Src/stm32f1xx_hal_sram.c ****     /* Process unlocked */
 536:Drivers/STM32F1xx_HAL_Driver/Src/stm32f1xx_hal_sram.c ****     __HAL_UNLOCK(hsram);
 537:Drivers/STM32F1xx_HAL_Driver/Src/stm32f1xx_hal_sram.c ****   }
 538:Drivers/STM32F1xx_HAL_Driver/Src/stm32f1xx_hal_sram.c ****   else
 539:Drivers/STM32F1xx_HAL_Driver/Src/stm32f1xx_hal_sram.c ****   {
 540:Drivers/STM32F1xx_HAL_Driver/Src/stm32f1xx_hal_sram.c ****     return HAL_ERROR;
 541:Drivers/STM32F1xx_HAL_Driver/Src/stm32f1xx_hal_sram.c ****   }
 542:Drivers/STM32F1xx_HAL_Driver/Src/stm32f1xx_hal_sram.c **** 
 543:Drivers/STM32F1xx_HAL_Driver/Src/stm32f1xx_hal_sram.c ****   return HAL_OK;
 544:Drivers/STM32F1xx_HAL_Driver/Src/stm32f1xx_hal_sram.c **** }
 545:Drivers/STM32F1xx_HAL_Driver/Src/stm32f1xx_hal_sram.c **** 
 546:Drivers/STM32F1xx_HAL_Driver/Src/stm32f1xx_hal_sram.c **** /**
 547:Drivers/STM32F1xx_HAL_Driver/Src/stm32f1xx_hal_sram.c ****   * @brief  Reads 32-bit buffer from SRAM memory.
 548:Drivers/STM32F1xx_HAL_Driver/Src/stm32f1xx_hal_sram.c ****   * @param  hsram pointer to a SRAM_HandleTypeDef structure that contains
 549:Drivers/STM32F1xx_HAL_Driver/Src/stm32f1xx_hal_sram.c ****   *                the configuration information for SRAM module.
 550:Drivers/STM32F1xx_HAL_Driver/Src/stm32f1xx_hal_sram.c ****   * @param  pAddress Pointer to read start address
 551:Drivers/STM32F1xx_HAL_Driver/Src/stm32f1xx_hal_sram.c ****   * @param  pDstBuffer Pointer to destination buffer
 552:Drivers/STM32F1xx_HAL_Driver/Src/stm32f1xx_hal_sram.c ****   * @param  BufferSize Size of the buffer to read from memory
 553:Drivers/STM32F1xx_HAL_Driver/Src/stm32f1xx_hal_sram.c ****   * @retval HAL status
 554:Drivers/STM32F1xx_HAL_Driver/Src/stm32f1xx_hal_sram.c ****   */
 555:Drivers/STM32F1xx_HAL_Driver/Src/stm32f1xx_hal_sram.c **** HAL_StatusTypeDef HAL_SRAM_Read_32b(SRAM_HandleTypeDef *hsram, uint32_t *pAddress, uint32_t *pDstBu
 556:Drivers/STM32F1xx_HAL_Driver/Src/stm32f1xx_hal_sram.c ****                                     uint32_t BufferSize)
 557:Drivers/STM32F1xx_HAL_Driver/Src/stm32f1xx_hal_sram.c **** {
 558:Drivers/STM32F1xx_HAL_Driver/Src/stm32f1xx_hal_sram.c ****   uint32_t size;
 559:Drivers/STM32F1xx_HAL_Driver/Src/stm32f1xx_hal_sram.c ****   __IO uint32_t *psramaddress = pAddress;
 560:Drivers/STM32F1xx_HAL_Driver/Src/stm32f1xx_hal_sram.c ****   uint32_t *pdestbuff = pDstBuffer;
 561:Drivers/STM32F1xx_HAL_Driver/Src/stm32f1xx_hal_sram.c ****   HAL_SRAM_StateTypeDef state = hsram->State;
 562:Drivers/STM32F1xx_HAL_Driver/Src/stm32f1xx_hal_sram.c **** 
 563:Drivers/STM32F1xx_HAL_Driver/Src/stm32f1xx_hal_sram.c ****   /* Check the SRAM controller state */
 564:Drivers/STM32F1xx_HAL_Driver/Src/stm32f1xx_hal_sram.c ****   if ((state == HAL_SRAM_STATE_READY) || (state == HAL_SRAM_STATE_PROTECTED))
 565:Drivers/STM32F1xx_HAL_Driver/Src/stm32f1xx_hal_sram.c ****   {
 566:Drivers/STM32F1xx_HAL_Driver/Src/stm32f1xx_hal_sram.c ****     /* Process Locked */
 567:Drivers/STM32F1xx_HAL_Driver/Src/stm32f1xx_hal_sram.c ****     __HAL_LOCK(hsram);
 568:Drivers/STM32F1xx_HAL_Driver/Src/stm32f1xx_hal_sram.c **** 
 569:Drivers/STM32F1xx_HAL_Driver/Src/stm32f1xx_hal_sram.c ****     /* Update the SRAM controller state */
 570:Drivers/STM32F1xx_HAL_Driver/Src/stm32f1xx_hal_sram.c ****     hsram->State = HAL_SRAM_STATE_BUSY;
 571:Drivers/STM32F1xx_HAL_Driver/Src/stm32f1xx_hal_sram.c **** 
 572:Drivers/STM32F1xx_HAL_Driver/Src/stm32f1xx_hal_sram.c ****     /* Read data from memory */
 573:Drivers/STM32F1xx_HAL_Driver/Src/stm32f1xx_hal_sram.c ****     for (size = BufferSize; size != 0U; size--)
ARM GAS  /tmp/ccxFNFiG.s 			page 16


 574:Drivers/STM32F1xx_HAL_Driver/Src/stm32f1xx_hal_sram.c ****     {
 575:Drivers/STM32F1xx_HAL_Driver/Src/stm32f1xx_hal_sram.c ****       *pdestbuff = *psramaddress;
 576:Drivers/STM32F1xx_HAL_Driver/Src/stm32f1xx_hal_sram.c ****       pdestbuff++;
 577:Drivers/STM32F1xx_HAL_Driver/Src/stm32f1xx_hal_sram.c ****       psramaddress++;
 578:Drivers/STM32F1xx_HAL_Driver/Src/stm32f1xx_hal_sram.c ****     }
 579:Drivers/STM32F1xx_HAL_Driver/Src/stm32f1xx_hal_sram.c **** 
 580:Drivers/STM32F1xx_HAL_Driver/Src/stm32f1xx_hal_sram.c ****     /* Update the SRAM controller state */
 581:Drivers/STM32F1xx_HAL_Driver/Src/stm32f1xx_hal_sram.c ****     hsram->State = state;
 582:Drivers/STM32F1xx_HAL_Driver/Src/stm32f1xx_hal_sram.c **** 
 583:Drivers/STM32F1xx_HAL_Driver/Src/stm32f1xx_hal_sram.c ****     /* Process unlocked */
 584:Drivers/STM32F1xx_HAL_Driver/Src/stm32f1xx_hal_sram.c ****     __HAL_UNLOCK(hsram);
 585:Drivers/STM32F1xx_HAL_Driver/Src/stm32f1xx_hal_sram.c ****   }
 586:Drivers/STM32F1xx_HAL_Driver/Src/stm32f1xx_hal_sram.c ****   else
 587:Drivers/STM32F1xx_HAL_Driver/Src/stm32f1xx_hal_sram.c ****   {
 588:Drivers/STM32F1xx_HAL_Driver/Src/stm32f1xx_hal_sram.c ****     return HAL_ERROR;
 589:Drivers/STM32F1xx_HAL_Driver/Src/stm32f1xx_hal_sram.c ****   }
 590:Drivers/STM32F1xx_HAL_Driver/Src/stm32f1xx_hal_sram.c **** 
 591:Drivers/STM32F1xx_HAL_Driver/Src/stm32f1xx_hal_sram.c ****   return HAL_OK;
 592:Drivers/STM32F1xx_HAL_Driver/Src/stm32f1xx_hal_sram.c **** }
 593:Drivers/STM32F1xx_HAL_Driver/Src/stm32f1xx_hal_sram.c **** 
 594:Drivers/STM32F1xx_HAL_Driver/Src/stm32f1xx_hal_sram.c **** /**
 595:Drivers/STM32F1xx_HAL_Driver/Src/stm32f1xx_hal_sram.c ****   * @brief  Writes 32-bit buffer to SRAM memory.
 596:Drivers/STM32F1xx_HAL_Driver/Src/stm32f1xx_hal_sram.c ****   * @param  hsram pointer to a SRAM_HandleTypeDef structure that contains
 597:Drivers/STM32F1xx_HAL_Driver/Src/stm32f1xx_hal_sram.c ****   *                the configuration information for SRAM module.
 598:Drivers/STM32F1xx_HAL_Driver/Src/stm32f1xx_hal_sram.c ****   * @param  pAddress Pointer to write start address
 599:Drivers/STM32F1xx_HAL_Driver/Src/stm32f1xx_hal_sram.c ****   * @param  pSrcBuffer Pointer to source buffer to write
 600:Drivers/STM32F1xx_HAL_Driver/Src/stm32f1xx_hal_sram.c ****   * @param  BufferSize Size of the buffer to write to memory
 601:Drivers/STM32F1xx_HAL_Driver/Src/stm32f1xx_hal_sram.c ****   * @retval HAL status
 602:Drivers/STM32F1xx_HAL_Driver/Src/stm32f1xx_hal_sram.c ****   */
 603:Drivers/STM32F1xx_HAL_Driver/Src/stm32f1xx_hal_sram.c **** HAL_StatusTypeDef HAL_SRAM_Write_32b(SRAM_HandleTypeDef *hsram, uint32_t *pAddress, uint32_t *pSrcB
 604:Drivers/STM32F1xx_HAL_Driver/Src/stm32f1xx_hal_sram.c ****                                      uint32_t BufferSize)
 605:Drivers/STM32F1xx_HAL_Driver/Src/stm32f1xx_hal_sram.c **** {
 606:Drivers/STM32F1xx_HAL_Driver/Src/stm32f1xx_hal_sram.c ****   uint32_t size;
 607:Drivers/STM32F1xx_HAL_Driver/Src/stm32f1xx_hal_sram.c ****   __IO uint32_t *psramaddress = pAddress;
 608:Drivers/STM32F1xx_HAL_Driver/Src/stm32f1xx_hal_sram.c ****   uint32_t *psrcbuff = pSrcBuffer;
 609:Drivers/STM32F1xx_HAL_Driver/Src/stm32f1xx_hal_sram.c **** 
 610:Drivers/STM32F1xx_HAL_Driver/Src/stm32f1xx_hal_sram.c ****   /* Check the SRAM controller state */
 611:Drivers/STM32F1xx_HAL_Driver/Src/stm32f1xx_hal_sram.c ****   if (hsram->State == HAL_SRAM_STATE_READY)
 612:Drivers/STM32F1xx_HAL_Driver/Src/stm32f1xx_hal_sram.c ****   {
 613:Drivers/STM32F1xx_HAL_Driver/Src/stm32f1xx_hal_sram.c ****     /* Process Locked */
 614:Drivers/STM32F1xx_HAL_Driver/Src/stm32f1xx_hal_sram.c ****     __HAL_LOCK(hsram);
 615:Drivers/STM32F1xx_HAL_Driver/Src/stm32f1xx_hal_sram.c **** 
 616:Drivers/STM32F1xx_HAL_Driver/Src/stm32f1xx_hal_sram.c ****     /* Update the SRAM controller state */
 617:Drivers/STM32F1xx_HAL_Driver/Src/stm32f1xx_hal_sram.c ****     hsram->State = HAL_SRAM_STATE_BUSY;
 618:Drivers/STM32F1xx_HAL_Driver/Src/stm32f1xx_hal_sram.c **** 
 619:Drivers/STM32F1xx_HAL_Driver/Src/stm32f1xx_hal_sram.c ****     /* Write data to memory */
 620:Drivers/STM32F1xx_HAL_Driver/Src/stm32f1xx_hal_sram.c ****     for (size = BufferSize; size != 0U; size--)
 621:Drivers/STM32F1xx_HAL_Driver/Src/stm32f1xx_hal_sram.c ****     {
 622:Drivers/STM32F1xx_HAL_Driver/Src/stm32f1xx_hal_sram.c ****       *psramaddress = *psrcbuff;
 623:Drivers/STM32F1xx_HAL_Driver/Src/stm32f1xx_hal_sram.c ****       psrcbuff++;
 624:Drivers/STM32F1xx_HAL_Driver/Src/stm32f1xx_hal_sram.c ****       psramaddress++;
 625:Drivers/STM32F1xx_HAL_Driver/Src/stm32f1xx_hal_sram.c ****     }
 626:Drivers/STM32F1xx_HAL_Driver/Src/stm32f1xx_hal_sram.c **** 
 627:Drivers/STM32F1xx_HAL_Driver/Src/stm32f1xx_hal_sram.c ****     /* Update the SRAM controller state */
 628:Drivers/STM32F1xx_HAL_Driver/Src/stm32f1xx_hal_sram.c ****     hsram->State = HAL_SRAM_STATE_READY;
 629:Drivers/STM32F1xx_HAL_Driver/Src/stm32f1xx_hal_sram.c **** 
 630:Drivers/STM32F1xx_HAL_Driver/Src/stm32f1xx_hal_sram.c ****     /* Process unlocked */
ARM GAS  /tmp/ccxFNFiG.s 			page 17


 631:Drivers/STM32F1xx_HAL_Driver/Src/stm32f1xx_hal_sram.c ****     __HAL_UNLOCK(hsram);
 632:Drivers/STM32F1xx_HAL_Driver/Src/stm32f1xx_hal_sram.c ****   }
 633:Drivers/STM32F1xx_HAL_Driver/Src/stm32f1xx_hal_sram.c ****   else
 634:Drivers/STM32F1xx_HAL_Driver/Src/stm32f1xx_hal_sram.c ****   {
 635:Drivers/STM32F1xx_HAL_Driver/Src/stm32f1xx_hal_sram.c ****     return HAL_ERROR;
 636:Drivers/STM32F1xx_HAL_Driver/Src/stm32f1xx_hal_sram.c ****   }
 637:Drivers/STM32F1xx_HAL_Driver/Src/stm32f1xx_hal_sram.c **** 
 638:Drivers/STM32F1xx_HAL_Driver/Src/stm32f1xx_hal_sram.c ****   return HAL_OK;
 639:Drivers/STM32F1xx_HAL_Driver/Src/stm32f1xx_hal_sram.c **** }
 640:Drivers/STM32F1xx_HAL_Driver/Src/stm32f1xx_hal_sram.c **** 
 641:Drivers/STM32F1xx_HAL_Driver/Src/stm32f1xx_hal_sram.c **** /**
 642:Drivers/STM32F1xx_HAL_Driver/Src/stm32f1xx_hal_sram.c ****   * @brief  Reads a Words data from the SRAM memory using DMA transfer.
 643:Drivers/STM32F1xx_HAL_Driver/Src/stm32f1xx_hal_sram.c ****   * @param  hsram pointer to a SRAM_HandleTypeDef structure that contains
 644:Drivers/STM32F1xx_HAL_Driver/Src/stm32f1xx_hal_sram.c ****   *                the configuration information for SRAM module.
 645:Drivers/STM32F1xx_HAL_Driver/Src/stm32f1xx_hal_sram.c ****   * @param  pAddress Pointer to read start address
 646:Drivers/STM32F1xx_HAL_Driver/Src/stm32f1xx_hal_sram.c ****   * @param  pDstBuffer Pointer to destination buffer
 647:Drivers/STM32F1xx_HAL_Driver/Src/stm32f1xx_hal_sram.c ****   * @param  BufferSize Size of the buffer to read from memory
 648:Drivers/STM32F1xx_HAL_Driver/Src/stm32f1xx_hal_sram.c ****   * @retval HAL status
 649:Drivers/STM32F1xx_HAL_Driver/Src/stm32f1xx_hal_sram.c ****   */
 650:Drivers/STM32F1xx_HAL_Driver/Src/stm32f1xx_hal_sram.c **** HAL_StatusTypeDef HAL_SRAM_Read_DMA(SRAM_HandleTypeDef *hsram, uint32_t *pAddress, uint32_t *pDstBu
 651:Drivers/STM32F1xx_HAL_Driver/Src/stm32f1xx_hal_sram.c ****                                     uint32_t BufferSize)
 652:Drivers/STM32F1xx_HAL_Driver/Src/stm32f1xx_hal_sram.c **** {
 653:Drivers/STM32F1xx_HAL_Driver/Src/stm32f1xx_hal_sram.c ****   HAL_StatusTypeDef status;
 654:Drivers/STM32F1xx_HAL_Driver/Src/stm32f1xx_hal_sram.c ****   HAL_SRAM_StateTypeDef state = hsram->State;
 655:Drivers/STM32F1xx_HAL_Driver/Src/stm32f1xx_hal_sram.c **** 
 656:Drivers/STM32F1xx_HAL_Driver/Src/stm32f1xx_hal_sram.c ****   /* Check the SRAM controller state */
 657:Drivers/STM32F1xx_HAL_Driver/Src/stm32f1xx_hal_sram.c ****   if ((state == HAL_SRAM_STATE_READY) || (state == HAL_SRAM_STATE_PROTECTED))
 658:Drivers/STM32F1xx_HAL_Driver/Src/stm32f1xx_hal_sram.c ****   {
 659:Drivers/STM32F1xx_HAL_Driver/Src/stm32f1xx_hal_sram.c ****     /* Process Locked */
 660:Drivers/STM32F1xx_HAL_Driver/Src/stm32f1xx_hal_sram.c ****     __HAL_LOCK(hsram);
 661:Drivers/STM32F1xx_HAL_Driver/Src/stm32f1xx_hal_sram.c **** 
 662:Drivers/STM32F1xx_HAL_Driver/Src/stm32f1xx_hal_sram.c ****     /* Update the SRAM controller state */
 663:Drivers/STM32F1xx_HAL_Driver/Src/stm32f1xx_hal_sram.c ****     hsram->State = HAL_SRAM_STATE_BUSY;
 664:Drivers/STM32F1xx_HAL_Driver/Src/stm32f1xx_hal_sram.c **** 
 665:Drivers/STM32F1xx_HAL_Driver/Src/stm32f1xx_hal_sram.c ****     /* Configure DMA user callbacks */
 666:Drivers/STM32F1xx_HAL_Driver/Src/stm32f1xx_hal_sram.c ****     if (state == HAL_SRAM_STATE_READY)
 667:Drivers/STM32F1xx_HAL_Driver/Src/stm32f1xx_hal_sram.c ****     {
 668:Drivers/STM32F1xx_HAL_Driver/Src/stm32f1xx_hal_sram.c ****       hsram->hdma->XferCpltCallback = SRAM_DMACplt;
 669:Drivers/STM32F1xx_HAL_Driver/Src/stm32f1xx_hal_sram.c ****     }
 670:Drivers/STM32F1xx_HAL_Driver/Src/stm32f1xx_hal_sram.c ****     else
 671:Drivers/STM32F1xx_HAL_Driver/Src/stm32f1xx_hal_sram.c ****     {
 672:Drivers/STM32F1xx_HAL_Driver/Src/stm32f1xx_hal_sram.c ****       hsram->hdma->XferCpltCallback = SRAM_DMACpltProt;
 673:Drivers/STM32F1xx_HAL_Driver/Src/stm32f1xx_hal_sram.c ****     }
 674:Drivers/STM32F1xx_HAL_Driver/Src/stm32f1xx_hal_sram.c ****     hsram->hdma->XferErrorCallback = SRAM_DMAError;
 675:Drivers/STM32F1xx_HAL_Driver/Src/stm32f1xx_hal_sram.c **** 
 676:Drivers/STM32F1xx_HAL_Driver/Src/stm32f1xx_hal_sram.c ****     /* Enable the DMA Stream */
 677:Drivers/STM32F1xx_HAL_Driver/Src/stm32f1xx_hal_sram.c ****     status = HAL_DMA_Start_IT(hsram->hdma, (uint32_t)pAddress, (uint32_t)pDstBuffer, (uint32_t)Buff
 678:Drivers/STM32F1xx_HAL_Driver/Src/stm32f1xx_hal_sram.c **** 
 679:Drivers/STM32F1xx_HAL_Driver/Src/stm32f1xx_hal_sram.c ****     /* Process unlocked */
 680:Drivers/STM32F1xx_HAL_Driver/Src/stm32f1xx_hal_sram.c ****     __HAL_UNLOCK(hsram);
 681:Drivers/STM32F1xx_HAL_Driver/Src/stm32f1xx_hal_sram.c ****   }
 682:Drivers/STM32F1xx_HAL_Driver/Src/stm32f1xx_hal_sram.c ****   else
 683:Drivers/STM32F1xx_HAL_Driver/Src/stm32f1xx_hal_sram.c ****   {
 684:Drivers/STM32F1xx_HAL_Driver/Src/stm32f1xx_hal_sram.c ****     status = HAL_ERROR;
 685:Drivers/STM32F1xx_HAL_Driver/Src/stm32f1xx_hal_sram.c ****   }
 686:Drivers/STM32F1xx_HAL_Driver/Src/stm32f1xx_hal_sram.c **** 
 687:Drivers/STM32F1xx_HAL_Driver/Src/stm32f1xx_hal_sram.c ****   return status;
ARM GAS  /tmp/ccxFNFiG.s 			page 18


 688:Drivers/STM32F1xx_HAL_Driver/Src/stm32f1xx_hal_sram.c **** }
 689:Drivers/STM32F1xx_HAL_Driver/Src/stm32f1xx_hal_sram.c **** 
 690:Drivers/STM32F1xx_HAL_Driver/Src/stm32f1xx_hal_sram.c **** /**
 691:Drivers/STM32F1xx_HAL_Driver/Src/stm32f1xx_hal_sram.c ****   * @brief  Writes a Words data buffer to SRAM memory using DMA transfer.
 692:Drivers/STM32F1xx_HAL_Driver/Src/stm32f1xx_hal_sram.c ****   * @param  hsram pointer to a SRAM_HandleTypeDef structure that contains
 693:Drivers/STM32F1xx_HAL_Driver/Src/stm32f1xx_hal_sram.c ****   *                the configuration information for SRAM module.
 694:Drivers/STM32F1xx_HAL_Driver/Src/stm32f1xx_hal_sram.c ****   * @param  pAddress Pointer to write start address
 695:Drivers/STM32F1xx_HAL_Driver/Src/stm32f1xx_hal_sram.c ****   * @param  pSrcBuffer Pointer to source buffer to write
 696:Drivers/STM32F1xx_HAL_Driver/Src/stm32f1xx_hal_sram.c ****   * @param  BufferSize Size of the buffer to write to memory
 697:Drivers/STM32F1xx_HAL_Driver/Src/stm32f1xx_hal_sram.c ****   * @retval HAL status
 698:Drivers/STM32F1xx_HAL_Driver/Src/stm32f1xx_hal_sram.c ****   */
 699:Drivers/STM32F1xx_HAL_Driver/Src/stm32f1xx_hal_sram.c **** HAL_StatusTypeDef HAL_SRAM_Write_DMA(SRAM_HandleTypeDef *hsram, uint32_t *pAddress, uint32_t *pSrcB
 700:Drivers/STM32F1xx_HAL_Driver/Src/stm32f1xx_hal_sram.c ****                                      uint32_t BufferSize)
 701:Drivers/STM32F1xx_HAL_Driver/Src/stm32f1xx_hal_sram.c **** {
 702:Drivers/STM32F1xx_HAL_Driver/Src/stm32f1xx_hal_sram.c ****   HAL_StatusTypeDef status;
 703:Drivers/STM32F1xx_HAL_Driver/Src/stm32f1xx_hal_sram.c **** 
 704:Drivers/STM32F1xx_HAL_Driver/Src/stm32f1xx_hal_sram.c ****   /* Check the SRAM controller state */
 705:Drivers/STM32F1xx_HAL_Driver/Src/stm32f1xx_hal_sram.c ****   if (hsram->State == HAL_SRAM_STATE_READY)
 706:Drivers/STM32F1xx_HAL_Driver/Src/stm32f1xx_hal_sram.c ****   {
 707:Drivers/STM32F1xx_HAL_Driver/Src/stm32f1xx_hal_sram.c ****     /* Process Locked */
 708:Drivers/STM32F1xx_HAL_Driver/Src/stm32f1xx_hal_sram.c ****     __HAL_LOCK(hsram);
 709:Drivers/STM32F1xx_HAL_Driver/Src/stm32f1xx_hal_sram.c **** 
 710:Drivers/STM32F1xx_HAL_Driver/Src/stm32f1xx_hal_sram.c ****     /* Update the SRAM controller state */
 711:Drivers/STM32F1xx_HAL_Driver/Src/stm32f1xx_hal_sram.c ****     hsram->State = HAL_SRAM_STATE_BUSY;
 712:Drivers/STM32F1xx_HAL_Driver/Src/stm32f1xx_hal_sram.c **** 
 713:Drivers/STM32F1xx_HAL_Driver/Src/stm32f1xx_hal_sram.c ****     /* Configure DMA user callbacks */
 714:Drivers/STM32F1xx_HAL_Driver/Src/stm32f1xx_hal_sram.c ****     hsram->hdma->XferCpltCallback = SRAM_DMACplt;
 715:Drivers/STM32F1xx_HAL_Driver/Src/stm32f1xx_hal_sram.c ****     hsram->hdma->XferErrorCallback = SRAM_DMAError;
 716:Drivers/STM32F1xx_HAL_Driver/Src/stm32f1xx_hal_sram.c **** 
 717:Drivers/STM32F1xx_HAL_Driver/Src/stm32f1xx_hal_sram.c ****     /* Enable the DMA Stream */
 718:Drivers/STM32F1xx_HAL_Driver/Src/stm32f1xx_hal_sram.c ****     status = HAL_DMA_Start_IT(hsram->hdma, (uint32_t)pSrcBuffer, (uint32_t)pAddress, (uint32_t)Buff
 719:Drivers/STM32F1xx_HAL_Driver/Src/stm32f1xx_hal_sram.c **** 
 720:Drivers/STM32F1xx_HAL_Driver/Src/stm32f1xx_hal_sram.c ****     /* Process unlocked */
 721:Drivers/STM32F1xx_HAL_Driver/Src/stm32f1xx_hal_sram.c ****     __HAL_UNLOCK(hsram);
 722:Drivers/STM32F1xx_HAL_Driver/Src/stm32f1xx_hal_sram.c ****   }
 723:Drivers/STM32F1xx_HAL_Driver/Src/stm32f1xx_hal_sram.c ****   else
 724:Drivers/STM32F1xx_HAL_Driver/Src/stm32f1xx_hal_sram.c ****   {
 725:Drivers/STM32F1xx_HAL_Driver/Src/stm32f1xx_hal_sram.c ****     status = HAL_ERROR;
 726:Drivers/STM32F1xx_HAL_Driver/Src/stm32f1xx_hal_sram.c ****   }
 727:Drivers/STM32F1xx_HAL_Driver/Src/stm32f1xx_hal_sram.c **** 
 728:Drivers/STM32F1xx_HAL_Driver/Src/stm32f1xx_hal_sram.c ****   return status;
 729:Drivers/STM32F1xx_HAL_Driver/Src/stm32f1xx_hal_sram.c **** }
 730:Drivers/STM32F1xx_HAL_Driver/Src/stm32f1xx_hal_sram.c **** 
 731:Drivers/STM32F1xx_HAL_Driver/Src/stm32f1xx_hal_sram.c **** #if (USE_HAL_SRAM_REGISTER_CALLBACKS == 1)
 732:Drivers/STM32F1xx_HAL_Driver/Src/stm32f1xx_hal_sram.c **** /**
 733:Drivers/STM32F1xx_HAL_Driver/Src/stm32f1xx_hal_sram.c ****   * @brief  Register a User SRAM Callback
 734:Drivers/STM32F1xx_HAL_Driver/Src/stm32f1xx_hal_sram.c ****   *         To be used instead of the weak (surcharged) predefined callback
 735:Drivers/STM32F1xx_HAL_Driver/Src/stm32f1xx_hal_sram.c ****   * @param hsram : SRAM handle
 736:Drivers/STM32F1xx_HAL_Driver/Src/stm32f1xx_hal_sram.c ****   * @param CallbackId : ID of the callback to be registered
 737:Drivers/STM32F1xx_HAL_Driver/Src/stm32f1xx_hal_sram.c ****   *        This parameter can be one of the following values:
 738:Drivers/STM32F1xx_HAL_Driver/Src/stm32f1xx_hal_sram.c ****   *          @arg @ref HAL_SRAM_MSP_INIT_CB_ID       SRAM MspInit callback ID
 739:Drivers/STM32F1xx_HAL_Driver/Src/stm32f1xx_hal_sram.c ****   *          @arg @ref HAL_SRAM_MSP_DEINIT_CB_ID     SRAM MspDeInit callback ID
 740:Drivers/STM32F1xx_HAL_Driver/Src/stm32f1xx_hal_sram.c ****   * @param pCallback : pointer to the Callback function
 741:Drivers/STM32F1xx_HAL_Driver/Src/stm32f1xx_hal_sram.c ****   * @retval status
 742:Drivers/STM32F1xx_HAL_Driver/Src/stm32f1xx_hal_sram.c ****   */
 743:Drivers/STM32F1xx_HAL_Driver/Src/stm32f1xx_hal_sram.c **** HAL_StatusTypeDef HAL_SRAM_RegisterCallback(SRAM_HandleTypeDef *hsram, HAL_SRAM_CallbackIDTypeDef C
 744:Drivers/STM32F1xx_HAL_Driver/Src/stm32f1xx_hal_sram.c ****                                             pSRAM_CallbackTypeDef pCallback)
ARM GAS  /tmp/ccxFNFiG.s 			page 19


 745:Drivers/STM32F1xx_HAL_Driver/Src/stm32f1xx_hal_sram.c **** {
 746:Drivers/STM32F1xx_HAL_Driver/Src/stm32f1xx_hal_sram.c ****   HAL_StatusTypeDef status = HAL_OK;
 747:Drivers/STM32F1xx_HAL_Driver/Src/stm32f1xx_hal_sram.c ****   HAL_SRAM_StateTypeDef state;
 748:Drivers/STM32F1xx_HAL_Driver/Src/stm32f1xx_hal_sram.c **** 
 749:Drivers/STM32F1xx_HAL_Driver/Src/stm32f1xx_hal_sram.c ****   if (pCallback == NULL)
 750:Drivers/STM32F1xx_HAL_Driver/Src/stm32f1xx_hal_sram.c ****   {
 751:Drivers/STM32F1xx_HAL_Driver/Src/stm32f1xx_hal_sram.c ****     return HAL_ERROR;
 752:Drivers/STM32F1xx_HAL_Driver/Src/stm32f1xx_hal_sram.c ****   }
 753:Drivers/STM32F1xx_HAL_Driver/Src/stm32f1xx_hal_sram.c **** 
 754:Drivers/STM32F1xx_HAL_Driver/Src/stm32f1xx_hal_sram.c ****   /* Process locked */
 755:Drivers/STM32F1xx_HAL_Driver/Src/stm32f1xx_hal_sram.c ****   __HAL_LOCK(hsram);
 756:Drivers/STM32F1xx_HAL_Driver/Src/stm32f1xx_hal_sram.c **** 
 757:Drivers/STM32F1xx_HAL_Driver/Src/stm32f1xx_hal_sram.c ****   state = hsram->State;
 758:Drivers/STM32F1xx_HAL_Driver/Src/stm32f1xx_hal_sram.c ****   if ((state == HAL_SRAM_STATE_READY) || (state == HAL_SRAM_STATE_RESET) || (state == HAL_SRAM_STAT
 759:Drivers/STM32F1xx_HAL_Driver/Src/stm32f1xx_hal_sram.c ****   {
 760:Drivers/STM32F1xx_HAL_Driver/Src/stm32f1xx_hal_sram.c ****     switch (CallbackId)
 761:Drivers/STM32F1xx_HAL_Driver/Src/stm32f1xx_hal_sram.c ****     {
 762:Drivers/STM32F1xx_HAL_Driver/Src/stm32f1xx_hal_sram.c ****       case HAL_SRAM_MSP_INIT_CB_ID :
 763:Drivers/STM32F1xx_HAL_Driver/Src/stm32f1xx_hal_sram.c ****         hsram->MspInitCallback = pCallback;
 764:Drivers/STM32F1xx_HAL_Driver/Src/stm32f1xx_hal_sram.c ****         break;
 765:Drivers/STM32F1xx_HAL_Driver/Src/stm32f1xx_hal_sram.c ****       case HAL_SRAM_MSP_DEINIT_CB_ID :
 766:Drivers/STM32F1xx_HAL_Driver/Src/stm32f1xx_hal_sram.c ****         hsram->MspDeInitCallback = pCallback;
 767:Drivers/STM32F1xx_HAL_Driver/Src/stm32f1xx_hal_sram.c ****         break;
 768:Drivers/STM32F1xx_HAL_Driver/Src/stm32f1xx_hal_sram.c ****       default :
 769:Drivers/STM32F1xx_HAL_Driver/Src/stm32f1xx_hal_sram.c ****         /* update return status */
 770:Drivers/STM32F1xx_HAL_Driver/Src/stm32f1xx_hal_sram.c ****         status =  HAL_ERROR;
 771:Drivers/STM32F1xx_HAL_Driver/Src/stm32f1xx_hal_sram.c ****         break;
 772:Drivers/STM32F1xx_HAL_Driver/Src/stm32f1xx_hal_sram.c ****     }
 773:Drivers/STM32F1xx_HAL_Driver/Src/stm32f1xx_hal_sram.c ****   }
 774:Drivers/STM32F1xx_HAL_Driver/Src/stm32f1xx_hal_sram.c ****   else
 775:Drivers/STM32F1xx_HAL_Driver/Src/stm32f1xx_hal_sram.c ****   {
 776:Drivers/STM32F1xx_HAL_Driver/Src/stm32f1xx_hal_sram.c ****     /* update return status */
 777:Drivers/STM32F1xx_HAL_Driver/Src/stm32f1xx_hal_sram.c ****     status =  HAL_ERROR;
 778:Drivers/STM32F1xx_HAL_Driver/Src/stm32f1xx_hal_sram.c ****   }
 779:Drivers/STM32F1xx_HAL_Driver/Src/stm32f1xx_hal_sram.c **** 
 780:Drivers/STM32F1xx_HAL_Driver/Src/stm32f1xx_hal_sram.c ****   /* Release Lock */
 781:Drivers/STM32F1xx_HAL_Driver/Src/stm32f1xx_hal_sram.c ****   __HAL_UNLOCK(hsram);
 782:Drivers/STM32F1xx_HAL_Driver/Src/stm32f1xx_hal_sram.c ****   return status;
 783:Drivers/STM32F1xx_HAL_Driver/Src/stm32f1xx_hal_sram.c **** }
 784:Drivers/STM32F1xx_HAL_Driver/Src/stm32f1xx_hal_sram.c **** 
 785:Drivers/STM32F1xx_HAL_Driver/Src/stm32f1xx_hal_sram.c **** /**
 786:Drivers/STM32F1xx_HAL_Driver/Src/stm32f1xx_hal_sram.c ****   * @brief  Unregister a User SRAM Callback
 787:Drivers/STM32F1xx_HAL_Driver/Src/stm32f1xx_hal_sram.c ****   *         SRAM Callback is redirected to the weak (surcharged) predefined callback
 788:Drivers/STM32F1xx_HAL_Driver/Src/stm32f1xx_hal_sram.c ****   * @param hsram : SRAM handle
 789:Drivers/STM32F1xx_HAL_Driver/Src/stm32f1xx_hal_sram.c ****   * @param CallbackId : ID of the callback to be unregistered
 790:Drivers/STM32F1xx_HAL_Driver/Src/stm32f1xx_hal_sram.c ****   *        This parameter can be one of the following values:
 791:Drivers/STM32F1xx_HAL_Driver/Src/stm32f1xx_hal_sram.c ****   *          @arg @ref HAL_SRAM_MSP_INIT_CB_ID       SRAM MspInit callback ID
 792:Drivers/STM32F1xx_HAL_Driver/Src/stm32f1xx_hal_sram.c ****   *          @arg @ref HAL_SRAM_MSP_DEINIT_CB_ID     SRAM MspDeInit callback ID
 793:Drivers/STM32F1xx_HAL_Driver/Src/stm32f1xx_hal_sram.c ****   *          @arg @ref HAL_SRAM_DMA_XFER_CPLT_CB_ID  SRAM DMA Xfer Complete callback ID
 794:Drivers/STM32F1xx_HAL_Driver/Src/stm32f1xx_hal_sram.c ****   *          @arg @ref HAL_SRAM_DMA_XFER_ERR_CB_ID   SRAM DMA Xfer Error callback ID
 795:Drivers/STM32F1xx_HAL_Driver/Src/stm32f1xx_hal_sram.c ****   * @retval status
 796:Drivers/STM32F1xx_HAL_Driver/Src/stm32f1xx_hal_sram.c ****   */
 797:Drivers/STM32F1xx_HAL_Driver/Src/stm32f1xx_hal_sram.c **** HAL_StatusTypeDef HAL_SRAM_UnRegisterCallback(SRAM_HandleTypeDef *hsram, HAL_SRAM_CallbackIDTypeDef
 798:Drivers/STM32F1xx_HAL_Driver/Src/stm32f1xx_hal_sram.c **** {
 799:Drivers/STM32F1xx_HAL_Driver/Src/stm32f1xx_hal_sram.c ****   HAL_StatusTypeDef status = HAL_OK;
 800:Drivers/STM32F1xx_HAL_Driver/Src/stm32f1xx_hal_sram.c ****   HAL_SRAM_StateTypeDef state;
 801:Drivers/STM32F1xx_HAL_Driver/Src/stm32f1xx_hal_sram.c **** 
ARM GAS  /tmp/ccxFNFiG.s 			page 20


 802:Drivers/STM32F1xx_HAL_Driver/Src/stm32f1xx_hal_sram.c ****   /* Process locked */
 803:Drivers/STM32F1xx_HAL_Driver/Src/stm32f1xx_hal_sram.c ****   __HAL_LOCK(hsram);
 804:Drivers/STM32F1xx_HAL_Driver/Src/stm32f1xx_hal_sram.c **** 
 805:Drivers/STM32F1xx_HAL_Driver/Src/stm32f1xx_hal_sram.c ****   state = hsram->State;
 806:Drivers/STM32F1xx_HAL_Driver/Src/stm32f1xx_hal_sram.c ****   if ((state == HAL_SRAM_STATE_READY) || (state == HAL_SRAM_STATE_PROTECTED))
 807:Drivers/STM32F1xx_HAL_Driver/Src/stm32f1xx_hal_sram.c ****   {
 808:Drivers/STM32F1xx_HAL_Driver/Src/stm32f1xx_hal_sram.c ****     switch (CallbackId)
 809:Drivers/STM32F1xx_HAL_Driver/Src/stm32f1xx_hal_sram.c ****     {
 810:Drivers/STM32F1xx_HAL_Driver/Src/stm32f1xx_hal_sram.c ****       case HAL_SRAM_MSP_INIT_CB_ID :
 811:Drivers/STM32F1xx_HAL_Driver/Src/stm32f1xx_hal_sram.c ****         hsram->MspInitCallback = HAL_SRAM_MspInit;
 812:Drivers/STM32F1xx_HAL_Driver/Src/stm32f1xx_hal_sram.c ****         break;
 813:Drivers/STM32F1xx_HAL_Driver/Src/stm32f1xx_hal_sram.c ****       case HAL_SRAM_MSP_DEINIT_CB_ID :
 814:Drivers/STM32F1xx_HAL_Driver/Src/stm32f1xx_hal_sram.c ****         hsram->MspDeInitCallback = HAL_SRAM_MspDeInit;
 815:Drivers/STM32F1xx_HAL_Driver/Src/stm32f1xx_hal_sram.c ****         break;
 816:Drivers/STM32F1xx_HAL_Driver/Src/stm32f1xx_hal_sram.c ****       case HAL_SRAM_DMA_XFER_CPLT_CB_ID :
 817:Drivers/STM32F1xx_HAL_Driver/Src/stm32f1xx_hal_sram.c ****         hsram->DmaXferCpltCallback = HAL_SRAM_DMA_XferCpltCallback;
 818:Drivers/STM32F1xx_HAL_Driver/Src/stm32f1xx_hal_sram.c ****         break;
 819:Drivers/STM32F1xx_HAL_Driver/Src/stm32f1xx_hal_sram.c ****       case HAL_SRAM_DMA_XFER_ERR_CB_ID :
 820:Drivers/STM32F1xx_HAL_Driver/Src/stm32f1xx_hal_sram.c ****         hsram->DmaXferErrorCallback = HAL_SRAM_DMA_XferErrorCallback;
 821:Drivers/STM32F1xx_HAL_Driver/Src/stm32f1xx_hal_sram.c ****         break;
 822:Drivers/STM32F1xx_HAL_Driver/Src/stm32f1xx_hal_sram.c ****       default :
 823:Drivers/STM32F1xx_HAL_Driver/Src/stm32f1xx_hal_sram.c ****         /* update return status */
 824:Drivers/STM32F1xx_HAL_Driver/Src/stm32f1xx_hal_sram.c ****         status =  HAL_ERROR;
 825:Drivers/STM32F1xx_HAL_Driver/Src/stm32f1xx_hal_sram.c ****         break;
 826:Drivers/STM32F1xx_HAL_Driver/Src/stm32f1xx_hal_sram.c ****     }
 827:Drivers/STM32F1xx_HAL_Driver/Src/stm32f1xx_hal_sram.c ****   }
 828:Drivers/STM32F1xx_HAL_Driver/Src/stm32f1xx_hal_sram.c ****   else if (state == HAL_SRAM_STATE_RESET)
 829:Drivers/STM32F1xx_HAL_Driver/Src/stm32f1xx_hal_sram.c ****   {
 830:Drivers/STM32F1xx_HAL_Driver/Src/stm32f1xx_hal_sram.c ****     switch (CallbackId)
 831:Drivers/STM32F1xx_HAL_Driver/Src/stm32f1xx_hal_sram.c ****     {
 832:Drivers/STM32F1xx_HAL_Driver/Src/stm32f1xx_hal_sram.c ****       case HAL_SRAM_MSP_INIT_CB_ID :
 833:Drivers/STM32F1xx_HAL_Driver/Src/stm32f1xx_hal_sram.c ****         hsram->MspInitCallback = HAL_SRAM_MspInit;
 834:Drivers/STM32F1xx_HAL_Driver/Src/stm32f1xx_hal_sram.c ****         break;
 835:Drivers/STM32F1xx_HAL_Driver/Src/stm32f1xx_hal_sram.c ****       case HAL_SRAM_MSP_DEINIT_CB_ID :
 836:Drivers/STM32F1xx_HAL_Driver/Src/stm32f1xx_hal_sram.c ****         hsram->MspDeInitCallback = HAL_SRAM_MspDeInit;
 837:Drivers/STM32F1xx_HAL_Driver/Src/stm32f1xx_hal_sram.c ****         break;
 838:Drivers/STM32F1xx_HAL_Driver/Src/stm32f1xx_hal_sram.c ****       default :
 839:Drivers/STM32F1xx_HAL_Driver/Src/stm32f1xx_hal_sram.c ****         /* update return status */
 840:Drivers/STM32F1xx_HAL_Driver/Src/stm32f1xx_hal_sram.c ****         status =  HAL_ERROR;
 841:Drivers/STM32F1xx_HAL_Driver/Src/stm32f1xx_hal_sram.c ****         break;
 842:Drivers/STM32F1xx_HAL_Driver/Src/stm32f1xx_hal_sram.c ****     }
 843:Drivers/STM32F1xx_HAL_Driver/Src/stm32f1xx_hal_sram.c ****   }
 844:Drivers/STM32F1xx_HAL_Driver/Src/stm32f1xx_hal_sram.c ****   else
 845:Drivers/STM32F1xx_HAL_Driver/Src/stm32f1xx_hal_sram.c ****   {
 846:Drivers/STM32F1xx_HAL_Driver/Src/stm32f1xx_hal_sram.c ****     /* update return status */
 847:Drivers/STM32F1xx_HAL_Driver/Src/stm32f1xx_hal_sram.c ****     status =  HAL_ERROR;
 848:Drivers/STM32F1xx_HAL_Driver/Src/stm32f1xx_hal_sram.c ****   }
 849:Drivers/STM32F1xx_HAL_Driver/Src/stm32f1xx_hal_sram.c **** 
 850:Drivers/STM32F1xx_HAL_Driver/Src/stm32f1xx_hal_sram.c ****   /* Release Lock */
 851:Drivers/STM32F1xx_HAL_Driver/Src/stm32f1xx_hal_sram.c ****   __HAL_UNLOCK(hsram);
 852:Drivers/STM32F1xx_HAL_Driver/Src/stm32f1xx_hal_sram.c ****   return status;
 853:Drivers/STM32F1xx_HAL_Driver/Src/stm32f1xx_hal_sram.c **** }
 854:Drivers/STM32F1xx_HAL_Driver/Src/stm32f1xx_hal_sram.c **** 
 855:Drivers/STM32F1xx_HAL_Driver/Src/stm32f1xx_hal_sram.c **** /**
 856:Drivers/STM32F1xx_HAL_Driver/Src/stm32f1xx_hal_sram.c ****   * @brief  Register a User SRAM Callback for DMA transfers
 857:Drivers/STM32F1xx_HAL_Driver/Src/stm32f1xx_hal_sram.c ****   *         To be used instead of the weak (surcharged) predefined callback
 858:Drivers/STM32F1xx_HAL_Driver/Src/stm32f1xx_hal_sram.c ****   * @param hsram : SRAM handle
ARM GAS  /tmp/ccxFNFiG.s 			page 21


 859:Drivers/STM32F1xx_HAL_Driver/Src/stm32f1xx_hal_sram.c ****   * @param CallbackId : ID of the callback to be registered
 860:Drivers/STM32F1xx_HAL_Driver/Src/stm32f1xx_hal_sram.c ****   *        This parameter can be one of the following values:
 861:Drivers/STM32F1xx_HAL_Driver/Src/stm32f1xx_hal_sram.c ****   *          @arg @ref HAL_SRAM_DMA_XFER_CPLT_CB_ID  SRAM DMA Xfer Complete callback ID
 862:Drivers/STM32F1xx_HAL_Driver/Src/stm32f1xx_hal_sram.c ****   *          @arg @ref HAL_SRAM_DMA_XFER_ERR_CB_ID   SRAM DMA Xfer Error callback ID
 863:Drivers/STM32F1xx_HAL_Driver/Src/stm32f1xx_hal_sram.c ****   * @param pCallback : pointer to the Callback function
 864:Drivers/STM32F1xx_HAL_Driver/Src/stm32f1xx_hal_sram.c ****   * @retval status
 865:Drivers/STM32F1xx_HAL_Driver/Src/stm32f1xx_hal_sram.c ****   */
 866:Drivers/STM32F1xx_HAL_Driver/Src/stm32f1xx_hal_sram.c **** HAL_StatusTypeDef HAL_SRAM_RegisterDmaCallback(SRAM_HandleTypeDef *hsram, HAL_SRAM_CallbackIDTypeDe
 867:Drivers/STM32F1xx_HAL_Driver/Src/stm32f1xx_hal_sram.c ****                                                pSRAM_DmaCallbackTypeDef pCallback)
 868:Drivers/STM32F1xx_HAL_Driver/Src/stm32f1xx_hal_sram.c **** {
 869:Drivers/STM32F1xx_HAL_Driver/Src/stm32f1xx_hal_sram.c ****   HAL_StatusTypeDef status = HAL_OK;
 870:Drivers/STM32F1xx_HAL_Driver/Src/stm32f1xx_hal_sram.c ****   HAL_SRAM_StateTypeDef state;
 871:Drivers/STM32F1xx_HAL_Driver/Src/stm32f1xx_hal_sram.c **** 
 872:Drivers/STM32F1xx_HAL_Driver/Src/stm32f1xx_hal_sram.c ****   if (pCallback == NULL)
 873:Drivers/STM32F1xx_HAL_Driver/Src/stm32f1xx_hal_sram.c ****   {
 874:Drivers/STM32F1xx_HAL_Driver/Src/stm32f1xx_hal_sram.c ****     return HAL_ERROR;
 875:Drivers/STM32F1xx_HAL_Driver/Src/stm32f1xx_hal_sram.c ****   }
 876:Drivers/STM32F1xx_HAL_Driver/Src/stm32f1xx_hal_sram.c **** 
 877:Drivers/STM32F1xx_HAL_Driver/Src/stm32f1xx_hal_sram.c ****   /* Process locked */
 878:Drivers/STM32F1xx_HAL_Driver/Src/stm32f1xx_hal_sram.c ****   __HAL_LOCK(hsram);
 879:Drivers/STM32F1xx_HAL_Driver/Src/stm32f1xx_hal_sram.c **** 
 880:Drivers/STM32F1xx_HAL_Driver/Src/stm32f1xx_hal_sram.c ****   state = hsram->State;
 881:Drivers/STM32F1xx_HAL_Driver/Src/stm32f1xx_hal_sram.c ****   if ((state == HAL_SRAM_STATE_READY) || (state == HAL_SRAM_STATE_PROTECTED))
 882:Drivers/STM32F1xx_HAL_Driver/Src/stm32f1xx_hal_sram.c ****   {
 883:Drivers/STM32F1xx_HAL_Driver/Src/stm32f1xx_hal_sram.c ****     switch (CallbackId)
 884:Drivers/STM32F1xx_HAL_Driver/Src/stm32f1xx_hal_sram.c ****     {
 885:Drivers/STM32F1xx_HAL_Driver/Src/stm32f1xx_hal_sram.c ****       case HAL_SRAM_DMA_XFER_CPLT_CB_ID :
 886:Drivers/STM32F1xx_HAL_Driver/Src/stm32f1xx_hal_sram.c ****         hsram->DmaXferCpltCallback = pCallback;
 887:Drivers/STM32F1xx_HAL_Driver/Src/stm32f1xx_hal_sram.c ****         break;
 888:Drivers/STM32F1xx_HAL_Driver/Src/stm32f1xx_hal_sram.c ****       case HAL_SRAM_DMA_XFER_ERR_CB_ID :
 889:Drivers/STM32F1xx_HAL_Driver/Src/stm32f1xx_hal_sram.c ****         hsram->DmaXferErrorCallback = pCallback;
 890:Drivers/STM32F1xx_HAL_Driver/Src/stm32f1xx_hal_sram.c ****         break;
 891:Drivers/STM32F1xx_HAL_Driver/Src/stm32f1xx_hal_sram.c ****       default :
 892:Drivers/STM32F1xx_HAL_Driver/Src/stm32f1xx_hal_sram.c ****         /* update return status */
 893:Drivers/STM32F1xx_HAL_Driver/Src/stm32f1xx_hal_sram.c ****         status =  HAL_ERROR;
 894:Drivers/STM32F1xx_HAL_Driver/Src/stm32f1xx_hal_sram.c ****         break;
 895:Drivers/STM32F1xx_HAL_Driver/Src/stm32f1xx_hal_sram.c ****     }
 896:Drivers/STM32F1xx_HAL_Driver/Src/stm32f1xx_hal_sram.c ****   }
 897:Drivers/STM32F1xx_HAL_Driver/Src/stm32f1xx_hal_sram.c ****   else
 898:Drivers/STM32F1xx_HAL_Driver/Src/stm32f1xx_hal_sram.c ****   {
 899:Drivers/STM32F1xx_HAL_Driver/Src/stm32f1xx_hal_sram.c ****     /* update return status */
 900:Drivers/STM32F1xx_HAL_Driver/Src/stm32f1xx_hal_sram.c ****     status =  HAL_ERROR;
 901:Drivers/STM32F1xx_HAL_Driver/Src/stm32f1xx_hal_sram.c ****   }
 902:Drivers/STM32F1xx_HAL_Driver/Src/stm32f1xx_hal_sram.c **** 
 903:Drivers/STM32F1xx_HAL_Driver/Src/stm32f1xx_hal_sram.c ****   /* Release Lock */
 904:Drivers/STM32F1xx_HAL_Driver/Src/stm32f1xx_hal_sram.c ****   __HAL_UNLOCK(hsram);
 905:Drivers/STM32F1xx_HAL_Driver/Src/stm32f1xx_hal_sram.c ****   return status;
 906:Drivers/STM32F1xx_HAL_Driver/Src/stm32f1xx_hal_sram.c **** }
 907:Drivers/STM32F1xx_HAL_Driver/Src/stm32f1xx_hal_sram.c **** #endif /* USE_HAL_SRAM_REGISTER_CALLBACKS */
 908:Drivers/STM32F1xx_HAL_Driver/Src/stm32f1xx_hal_sram.c **** 
 909:Drivers/STM32F1xx_HAL_Driver/Src/stm32f1xx_hal_sram.c **** /**
 910:Drivers/STM32F1xx_HAL_Driver/Src/stm32f1xx_hal_sram.c ****   * @}
 911:Drivers/STM32F1xx_HAL_Driver/Src/stm32f1xx_hal_sram.c ****   */
 912:Drivers/STM32F1xx_HAL_Driver/Src/stm32f1xx_hal_sram.c **** 
 913:Drivers/STM32F1xx_HAL_Driver/Src/stm32f1xx_hal_sram.c **** /** @defgroup SRAM_Exported_Functions_Group3 Control functions
 914:Drivers/STM32F1xx_HAL_Driver/Src/stm32f1xx_hal_sram.c ****   *  @brief   Control functions
 915:Drivers/STM32F1xx_HAL_Driver/Src/stm32f1xx_hal_sram.c ****   *
ARM GAS  /tmp/ccxFNFiG.s 			page 22


 916:Drivers/STM32F1xx_HAL_Driver/Src/stm32f1xx_hal_sram.c **** @verbatim
 917:Drivers/STM32F1xx_HAL_Driver/Src/stm32f1xx_hal_sram.c ****   ==============================================================================
 918:Drivers/STM32F1xx_HAL_Driver/Src/stm32f1xx_hal_sram.c ****                         ##### SRAM Control functions #####
 919:Drivers/STM32F1xx_HAL_Driver/Src/stm32f1xx_hal_sram.c ****   ==============================================================================
 920:Drivers/STM32F1xx_HAL_Driver/Src/stm32f1xx_hal_sram.c ****   [..]
 921:Drivers/STM32F1xx_HAL_Driver/Src/stm32f1xx_hal_sram.c ****     This subsection provides a set of functions allowing to control dynamically
 922:Drivers/STM32F1xx_HAL_Driver/Src/stm32f1xx_hal_sram.c ****     the SRAM interface.
 923:Drivers/STM32F1xx_HAL_Driver/Src/stm32f1xx_hal_sram.c **** 
 924:Drivers/STM32F1xx_HAL_Driver/Src/stm32f1xx_hal_sram.c **** @endverbatim
 925:Drivers/STM32F1xx_HAL_Driver/Src/stm32f1xx_hal_sram.c ****   * @{
 926:Drivers/STM32F1xx_HAL_Driver/Src/stm32f1xx_hal_sram.c ****   */
 927:Drivers/STM32F1xx_HAL_Driver/Src/stm32f1xx_hal_sram.c **** 
 928:Drivers/STM32F1xx_HAL_Driver/Src/stm32f1xx_hal_sram.c **** /**
 929:Drivers/STM32F1xx_HAL_Driver/Src/stm32f1xx_hal_sram.c ****   * @brief  Enables dynamically SRAM write operation.
 930:Drivers/STM32F1xx_HAL_Driver/Src/stm32f1xx_hal_sram.c ****   * @param  hsram pointer to a SRAM_HandleTypeDef structure that contains
 931:Drivers/STM32F1xx_HAL_Driver/Src/stm32f1xx_hal_sram.c ****   *                the configuration information for SRAM module.
 932:Drivers/STM32F1xx_HAL_Driver/Src/stm32f1xx_hal_sram.c ****   * @retval HAL status
 933:Drivers/STM32F1xx_HAL_Driver/Src/stm32f1xx_hal_sram.c ****   */
 934:Drivers/STM32F1xx_HAL_Driver/Src/stm32f1xx_hal_sram.c **** HAL_StatusTypeDef HAL_SRAM_WriteOperation_Enable(SRAM_HandleTypeDef *hsram)
 935:Drivers/STM32F1xx_HAL_Driver/Src/stm32f1xx_hal_sram.c **** {
 936:Drivers/STM32F1xx_HAL_Driver/Src/stm32f1xx_hal_sram.c ****   /* Check the SRAM controller state */
 937:Drivers/STM32F1xx_HAL_Driver/Src/stm32f1xx_hal_sram.c ****   if (hsram->State == HAL_SRAM_STATE_PROTECTED)
 938:Drivers/STM32F1xx_HAL_Driver/Src/stm32f1xx_hal_sram.c ****   {
 939:Drivers/STM32F1xx_HAL_Driver/Src/stm32f1xx_hal_sram.c ****     /* Process Locked */
 940:Drivers/STM32F1xx_HAL_Driver/Src/stm32f1xx_hal_sram.c ****     __HAL_LOCK(hsram);
 941:Drivers/STM32F1xx_HAL_Driver/Src/stm32f1xx_hal_sram.c **** 
 942:Drivers/STM32F1xx_HAL_Driver/Src/stm32f1xx_hal_sram.c ****     /* Update the SRAM controller state */
 943:Drivers/STM32F1xx_HAL_Driver/Src/stm32f1xx_hal_sram.c ****     hsram->State = HAL_SRAM_STATE_BUSY;
 944:Drivers/STM32F1xx_HAL_Driver/Src/stm32f1xx_hal_sram.c **** 
 945:Drivers/STM32F1xx_HAL_Driver/Src/stm32f1xx_hal_sram.c ****     /* Enable write operation */
 946:Drivers/STM32F1xx_HAL_Driver/Src/stm32f1xx_hal_sram.c ****     (void)FSMC_NORSRAM_WriteOperation_Enable(hsram->Instance, hsram->Init.NSBank);
 947:Drivers/STM32F1xx_HAL_Driver/Src/stm32f1xx_hal_sram.c **** 
 948:Drivers/STM32F1xx_HAL_Driver/Src/stm32f1xx_hal_sram.c ****     /* Update the SRAM controller state */
 949:Drivers/STM32F1xx_HAL_Driver/Src/stm32f1xx_hal_sram.c ****     hsram->State = HAL_SRAM_STATE_READY;
 950:Drivers/STM32F1xx_HAL_Driver/Src/stm32f1xx_hal_sram.c **** 
 951:Drivers/STM32F1xx_HAL_Driver/Src/stm32f1xx_hal_sram.c ****     /* Process unlocked */
 952:Drivers/STM32F1xx_HAL_Driver/Src/stm32f1xx_hal_sram.c ****     __HAL_UNLOCK(hsram);
 953:Drivers/STM32F1xx_HAL_Driver/Src/stm32f1xx_hal_sram.c ****   }
 954:Drivers/STM32F1xx_HAL_Driver/Src/stm32f1xx_hal_sram.c ****   else
 955:Drivers/STM32F1xx_HAL_Driver/Src/stm32f1xx_hal_sram.c ****   {
 956:Drivers/STM32F1xx_HAL_Driver/Src/stm32f1xx_hal_sram.c ****     return HAL_ERROR;
 957:Drivers/STM32F1xx_HAL_Driver/Src/stm32f1xx_hal_sram.c ****   }
 958:Drivers/STM32F1xx_HAL_Driver/Src/stm32f1xx_hal_sram.c **** 
 959:Drivers/STM32F1xx_HAL_Driver/Src/stm32f1xx_hal_sram.c ****   return HAL_OK;
 960:Drivers/STM32F1xx_HAL_Driver/Src/stm32f1xx_hal_sram.c **** }
 961:Drivers/STM32F1xx_HAL_Driver/Src/stm32f1xx_hal_sram.c **** 
 962:Drivers/STM32F1xx_HAL_Driver/Src/stm32f1xx_hal_sram.c **** /**
 963:Drivers/STM32F1xx_HAL_Driver/Src/stm32f1xx_hal_sram.c ****   * @brief  Disables dynamically SRAM write operation.
 964:Drivers/STM32F1xx_HAL_Driver/Src/stm32f1xx_hal_sram.c ****   * @param  hsram pointer to a SRAM_HandleTypeDef structure that contains
 965:Drivers/STM32F1xx_HAL_Driver/Src/stm32f1xx_hal_sram.c ****   *                the configuration information for SRAM module.
 966:Drivers/STM32F1xx_HAL_Driver/Src/stm32f1xx_hal_sram.c ****   * @retval HAL status
 967:Drivers/STM32F1xx_HAL_Driver/Src/stm32f1xx_hal_sram.c ****   */
 968:Drivers/STM32F1xx_HAL_Driver/Src/stm32f1xx_hal_sram.c **** HAL_StatusTypeDef HAL_SRAM_WriteOperation_Disable(SRAM_HandleTypeDef *hsram)
 969:Drivers/STM32F1xx_HAL_Driver/Src/stm32f1xx_hal_sram.c **** {
 970:Drivers/STM32F1xx_HAL_Driver/Src/stm32f1xx_hal_sram.c ****   /* Check the SRAM controller state */
 971:Drivers/STM32F1xx_HAL_Driver/Src/stm32f1xx_hal_sram.c ****   if (hsram->State == HAL_SRAM_STATE_READY)
 972:Drivers/STM32F1xx_HAL_Driver/Src/stm32f1xx_hal_sram.c ****   {
ARM GAS  /tmp/ccxFNFiG.s 			page 23


 973:Drivers/STM32F1xx_HAL_Driver/Src/stm32f1xx_hal_sram.c ****     /* Process Locked */
 974:Drivers/STM32F1xx_HAL_Driver/Src/stm32f1xx_hal_sram.c ****     __HAL_LOCK(hsram);
 975:Drivers/STM32F1xx_HAL_Driver/Src/stm32f1xx_hal_sram.c **** 
 976:Drivers/STM32F1xx_HAL_Driver/Src/stm32f1xx_hal_sram.c ****     /* Update the SRAM controller state */
 977:Drivers/STM32F1xx_HAL_Driver/Src/stm32f1xx_hal_sram.c ****     hsram->State = HAL_SRAM_STATE_BUSY;
 978:Drivers/STM32F1xx_HAL_Driver/Src/stm32f1xx_hal_sram.c **** 
 979:Drivers/STM32F1xx_HAL_Driver/Src/stm32f1xx_hal_sram.c ****     /* Disable write operation */
 980:Drivers/STM32F1xx_HAL_Driver/Src/stm32f1xx_hal_sram.c ****     (void)FSMC_NORSRAM_WriteOperation_Disable(hsram->Instance, hsram->Init.NSBank);
 981:Drivers/STM32F1xx_HAL_Driver/Src/stm32f1xx_hal_sram.c **** 
 982:Drivers/STM32F1xx_HAL_Driver/Src/stm32f1xx_hal_sram.c ****     /* Update the SRAM controller state */
 983:Drivers/STM32F1xx_HAL_Driver/Src/stm32f1xx_hal_sram.c ****     hsram->State = HAL_SRAM_STATE_PROTECTED;
 984:Drivers/STM32F1xx_HAL_Driver/Src/stm32f1xx_hal_sram.c **** 
 985:Drivers/STM32F1xx_HAL_Driver/Src/stm32f1xx_hal_sram.c ****     /* Process unlocked */
 986:Drivers/STM32F1xx_HAL_Driver/Src/stm32f1xx_hal_sram.c ****     __HAL_UNLOCK(hsram);
 987:Drivers/STM32F1xx_HAL_Driver/Src/stm32f1xx_hal_sram.c ****   }
 988:Drivers/STM32F1xx_HAL_Driver/Src/stm32f1xx_hal_sram.c ****   else
 989:Drivers/STM32F1xx_HAL_Driver/Src/stm32f1xx_hal_sram.c ****   {
 990:Drivers/STM32F1xx_HAL_Driver/Src/stm32f1xx_hal_sram.c ****     return HAL_ERROR;
 991:Drivers/STM32F1xx_HAL_Driver/Src/stm32f1xx_hal_sram.c ****   }
 992:Drivers/STM32F1xx_HAL_Driver/Src/stm32f1xx_hal_sram.c **** 
 993:Drivers/STM32F1xx_HAL_Driver/Src/stm32f1xx_hal_sram.c ****   return HAL_OK;
 994:Drivers/STM32F1xx_HAL_Driver/Src/stm32f1xx_hal_sram.c **** }
 995:Drivers/STM32F1xx_HAL_Driver/Src/stm32f1xx_hal_sram.c **** 
 996:Drivers/STM32F1xx_HAL_Driver/Src/stm32f1xx_hal_sram.c **** /**
 997:Drivers/STM32F1xx_HAL_Driver/Src/stm32f1xx_hal_sram.c ****   * @}
 998:Drivers/STM32F1xx_HAL_Driver/Src/stm32f1xx_hal_sram.c ****   */
 999:Drivers/STM32F1xx_HAL_Driver/Src/stm32f1xx_hal_sram.c **** 
1000:Drivers/STM32F1xx_HAL_Driver/Src/stm32f1xx_hal_sram.c **** /** @defgroup SRAM_Exported_Functions_Group4 Peripheral State functions
1001:Drivers/STM32F1xx_HAL_Driver/Src/stm32f1xx_hal_sram.c ****   *  @brief   Peripheral State functions
1002:Drivers/STM32F1xx_HAL_Driver/Src/stm32f1xx_hal_sram.c ****   *
1003:Drivers/STM32F1xx_HAL_Driver/Src/stm32f1xx_hal_sram.c **** @verbatim
1004:Drivers/STM32F1xx_HAL_Driver/Src/stm32f1xx_hal_sram.c ****   ==============================================================================
1005:Drivers/STM32F1xx_HAL_Driver/Src/stm32f1xx_hal_sram.c ****                       ##### SRAM State functions #####
1006:Drivers/STM32F1xx_HAL_Driver/Src/stm32f1xx_hal_sram.c ****   ==============================================================================
1007:Drivers/STM32F1xx_HAL_Driver/Src/stm32f1xx_hal_sram.c ****   [..]
1008:Drivers/STM32F1xx_HAL_Driver/Src/stm32f1xx_hal_sram.c ****     This subsection permits to get in run-time the status of the SRAM controller
1009:Drivers/STM32F1xx_HAL_Driver/Src/stm32f1xx_hal_sram.c ****     and the data flow.
1010:Drivers/STM32F1xx_HAL_Driver/Src/stm32f1xx_hal_sram.c **** 
1011:Drivers/STM32F1xx_HAL_Driver/Src/stm32f1xx_hal_sram.c **** @endverbatim
1012:Drivers/STM32F1xx_HAL_Driver/Src/stm32f1xx_hal_sram.c ****   * @{
1013:Drivers/STM32F1xx_HAL_Driver/Src/stm32f1xx_hal_sram.c ****   */
1014:Drivers/STM32F1xx_HAL_Driver/Src/stm32f1xx_hal_sram.c **** 
1015:Drivers/STM32F1xx_HAL_Driver/Src/stm32f1xx_hal_sram.c **** /**
1016:Drivers/STM32F1xx_HAL_Driver/Src/stm32f1xx_hal_sram.c ****   * @brief  Returns the SRAM controller state
1017:Drivers/STM32F1xx_HAL_Driver/Src/stm32f1xx_hal_sram.c ****   * @param  hsram pointer to a SRAM_HandleTypeDef structure that contains
1018:Drivers/STM32F1xx_HAL_Driver/Src/stm32f1xx_hal_sram.c ****   *                the configuration information for SRAM module.
1019:Drivers/STM32F1xx_HAL_Driver/Src/stm32f1xx_hal_sram.c ****   * @retval HAL state
1020:Drivers/STM32F1xx_HAL_Driver/Src/stm32f1xx_hal_sram.c ****   */
1021:Drivers/STM32F1xx_HAL_Driver/Src/stm32f1xx_hal_sram.c **** HAL_SRAM_StateTypeDef HAL_SRAM_GetState(SRAM_HandleTypeDef *hsram)
1022:Drivers/STM32F1xx_HAL_Driver/Src/stm32f1xx_hal_sram.c **** {
1023:Drivers/STM32F1xx_HAL_Driver/Src/stm32f1xx_hal_sram.c ****   return hsram->State;
1024:Drivers/STM32F1xx_HAL_Driver/Src/stm32f1xx_hal_sram.c **** }
1025:Drivers/STM32F1xx_HAL_Driver/Src/stm32f1xx_hal_sram.c **** 
1026:Drivers/STM32F1xx_HAL_Driver/Src/stm32f1xx_hal_sram.c **** /**
1027:Drivers/STM32F1xx_HAL_Driver/Src/stm32f1xx_hal_sram.c ****   * @}
1028:Drivers/STM32F1xx_HAL_Driver/Src/stm32f1xx_hal_sram.c ****   */
1029:Drivers/STM32F1xx_HAL_Driver/Src/stm32f1xx_hal_sram.c **** 
ARM GAS  /tmp/ccxFNFiG.s 			page 24


1030:Drivers/STM32F1xx_HAL_Driver/Src/stm32f1xx_hal_sram.c **** /**
1031:Drivers/STM32F1xx_HAL_Driver/Src/stm32f1xx_hal_sram.c ****   * @}
1032:Drivers/STM32F1xx_HAL_Driver/Src/stm32f1xx_hal_sram.c ****   */
1033:Drivers/STM32F1xx_HAL_Driver/Src/stm32f1xx_hal_sram.c **** 
1034:Drivers/STM32F1xx_HAL_Driver/Src/stm32f1xx_hal_sram.c **** /**
1035:Drivers/STM32F1xx_HAL_Driver/Src/stm32f1xx_hal_sram.c ****   * @brief  DMA SRAM process complete callback.
1036:Drivers/STM32F1xx_HAL_Driver/Src/stm32f1xx_hal_sram.c ****   * @param  hdma : DMA handle
1037:Drivers/STM32F1xx_HAL_Driver/Src/stm32f1xx_hal_sram.c ****   * @retval None
1038:Drivers/STM32F1xx_HAL_Driver/Src/stm32f1xx_hal_sram.c ****   */
1039:Drivers/STM32F1xx_HAL_Driver/Src/stm32f1xx_hal_sram.c **** static void SRAM_DMACplt(DMA_HandleTypeDef *hdma)
1040:Drivers/STM32F1xx_HAL_Driver/Src/stm32f1xx_hal_sram.c **** {
1041:Drivers/STM32F1xx_HAL_Driver/Src/stm32f1xx_hal_sram.c ****   SRAM_HandleTypeDef *hsram = (SRAM_HandleTypeDef *)(hdma->Parent);
1042:Drivers/STM32F1xx_HAL_Driver/Src/stm32f1xx_hal_sram.c **** 
1043:Drivers/STM32F1xx_HAL_Driver/Src/stm32f1xx_hal_sram.c ****   /* Disable the DMA channel */
1044:Drivers/STM32F1xx_HAL_Driver/Src/stm32f1xx_hal_sram.c ****   __HAL_DMA_DISABLE(hdma);
1045:Drivers/STM32F1xx_HAL_Driver/Src/stm32f1xx_hal_sram.c **** 
1046:Drivers/STM32F1xx_HAL_Driver/Src/stm32f1xx_hal_sram.c ****   /* Update the SRAM controller state */
1047:Drivers/STM32F1xx_HAL_Driver/Src/stm32f1xx_hal_sram.c ****   hsram->State = HAL_SRAM_STATE_READY;
1048:Drivers/STM32F1xx_HAL_Driver/Src/stm32f1xx_hal_sram.c **** 
1049:Drivers/STM32F1xx_HAL_Driver/Src/stm32f1xx_hal_sram.c **** #if (USE_HAL_SRAM_REGISTER_CALLBACKS == 1)
1050:Drivers/STM32F1xx_HAL_Driver/Src/stm32f1xx_hal_sram.c ****   hsram->DmaXferCpltCallback(hdma);
1051:Drivers/STM32F1xx_HAL_Driver/Src/stm32f1xx_hal_sram.c **** #else
1052:Drivers/STM32F1xx_HAL_Driver/Src/stm32f1xx_hal_sram.c ****   HAL_SRAM_DMA_XferCpltCallback(hdma);
1053:Drivers/STM32F1xx_HAL_Driver/Src/stm32f1xx_hal_sram.c **** #endif /* USE_HAL_SRAM_REGISTER_CALLBACKS */
1054:Drivers/STM32F1xx_HAL_Driver/Src/stm32f1xx_hal_sram.c **** }
1055:Drivers/STM32F1xx_HAL_Driver/Src/stm32f1xx_hal_sram.c **** 
1056:Drivers/STM32F1xx_HAL_Driver/Src/stm32f1xx_hal_sram.c **** /**
1057:Drivers/STM32F1xx_HAL_Driver/Src/stm32f1xx_hal_sram.c ****   * @brief  DMA SRAM process complete callback.
1058:Drivers/STM32F1xx_HAL_Driver/Src/stm32f1xx_hal_sram.c ****   * @param  hdma : DMA handle
1059:Drivers/STM32F1xx_HAL_Driver/Src/stm32f1xx_hal_sram.c ****   * @retval None
1060:Drivers/STM32F1xx_HAL_Driver/Src/stm32f1xx_hal_sram.c ****   */
1061:Drivers/STM32F1xx_HAL_Driver/Src/stm32f1xx_hal_sram.c **** static void SRAM_DMACpltProt(DMA_HandleTypeDef *hdma)
1062:Drivers/STM32F1xx_HAL_Driver/Src/stm32f1xx_hal_sram.c **** {
 252              		.loc 1 1062 1 is_stmt 1 view -0
 253              		.cfi_startproc
 254              		@ args = 0, pretend = 0, frame = 0
 255              		@ frame_needed = 0, uses_anonymous_args = 0
 256              		.loc 1 1062 1 is_stmt 0 view .LVU52
 257 0000 08B5     		push	{r3, lr}
 258              	.LCFI4:
 259              		.cfi_def_cfa_offset 8
 260              		.cfi_offset 3, -8
 261              		.cfi_offset 14, -4
1063:Drivers/STM32F1xx_HAL_Driver/Src/stm32f1xx_hal_sram.c ****   SRAM_HandleTypeDef *hsram = (SRAM_HandleTypeDef *)(hdma->Parent);
 262              		.loc 1 1063 3 is_stmt 1 view .LVU53
 263              		.loc 1 1063 23 is_stmt 0 view .LVU54
 264 0002 416A     		ldr	r1, [r0, #36]
 265              	.LVL18:
1064:Drivers/STM32F1xx_HAL_Driver/Src/stm32f1xx_hal_sram.c **** 
1065:Drivers/STM32F1xx_HAL_Driver/Src/stm32f1xx_hal_sram.c ****   /* Disable the DMA channel */
1066:Drivers/STM32F1xx_HAL_Driver/Src/stm32f1xx_hal_sram.c ****   __HAL_DMA_DISABLE(hdma);
 266              		.loc 1 1066 3 is_stmt 1 view .LVU55
 267 0004 0268     		ldr	r2, [r0]
 268 0006 1368     		ldr	r3, [r2]
 269 0008 23F00103 		bic	r3, r3, #1
 270 000c 1360     		str	r3, [r2]
1067:Drivers/STM32F1xx_HAL_Driver/Src/stm32f1xx_hal_sram.c **** 
ARM GAS  /tmp/ccxFNFiG.s 			page 25


1068:Drivers/STM32F1xx_HAL_Driver/Src/stm32f1xx_hal_sram.c ****   /* Update the SRAM controller state */
1069:Drivers/STM32F1xx_HAL_Driver/Src/stm32f1xx_hal_sram.c ****   hsram->State = HAL_SRAM_STATE_PROTECTED;
 271              		.loc 1 1069 3 view .LVU56
 272              		.loc 1 1069 16 is_stmt 0 view .LVU57
 273 000e 0423     		movs	r3, #4
 274 0010 81F84130 		strb	r3, [r1, #65]
1070:Drivers/STM32F1xx_HAL_Driver/Src/stm32f1xx_hal_sram.c **** 
1071:Drivers/STM32F1xx_HAL_Driver/Src/stm32f1xx_hal_sram.c **** #if (USE_HAL_SRAM_REGISTER_CALLBACKS == 1)
1072:Drivers/STM32F1xx_HAL_Driver/Src/stm32f1xx_hal_sram.c ****   hsram->DmaXferCpltCallback(hdma);
1073:Drivers/STM32F1xx_HAL_Driver/Src/stm32f1xx_hal_sram.c **** #else
1074:Drivers/STM32F1xx_HAL_Driver/Src/stm32f1xx_hal_sram.c ****   HAL_SRAM_DMA_XferCpltCallback(hdma);
 275              		.loc 1 1074 3 is_stmt 1 view .LVU58
 276 0014 FFF7FEFF 		bl	HAL_SRAM_DMA_XferCpltCallback
 277              	.LVL19:
1075:Drivers/STM32F1xx_HAL_Driver/Src/stm32f1xx_hal_sram.c **** #endif /* USE_HAL_SRAM_REGISTER_CALLBACKS */
1076:Drivers/STM32F1xx_HAL_Driver/Src/stm32f1xx_hal_sram.c **** }
 278              		.loc 1 1076 1 is_stmt 0 view .LVU59
 279 0018 08BD     		pop	{r3, pc}
 280              		.cfi_endproc
 281              	.LFE83:
 283              		.section	.text.SRAM_DMACplt,"ax",%progbits
 284              		.align	1
 285              		.syntax unified
 286              		.thumb
 287              		.thumb_func
 289              	SRAM_DMACplt:
 290              	.LVL20:
 291              	.LFB82:
1040:Drivers/STM32F1xx_HAL_Driver/Src/stm32f1xx_hal_sram.c ****   SRAM_HandleTypeDef *hsram = (SRAM_HandleTypeDef *)(hdma->Parent);
 292              		.loc 1 1040 1 is_stmt 1 view -0
 293              		.cfi_startproc
 294              		@ args = 0, pretend = 0, frame = 0
 295              		@ frame_needed = 0, uses_anonymous_args = 0
1040:Drivers/STM32F1xx_HAL_Driver/Src/stm32f1xx_hal_sram.c ****   SRAM_HandleTypeDef *hsram = (SRAM_HandleTypeDef *)(hdma->Parent);
 296              		.loc 1 1040 1 is_stmt 0 view .LVU61
 297 0000 08B5     		push	{r3, lr}
 298              	.LCFI5:
 299              		.cfi_def_cfa_offset 8
 300              		.cfi_offset 3, -8
 301              		.cfi_offset 14, -4
1041:Drivers/STM32F1xx_HAL_Driver/Src/stm32f1xx_hal_sram.c **** 
 302              		.loc 1 1041 3 is_stmt 1 view .LVU62
1041:Drivers/STM32F1xx_HAL_Driver/Src/stm32f1xx_hal_sram.c **** 
 303              		.loc 1 1041 23 is_stmt 0 view .LVU63
 304 0002 416A     		ldr	r1, [r0, #36]
 305              	.LVL21:
1044:Drivers/STM32F1xx_HAL_Driver/Src/stm32f1xx_hal_sram.c **** 
 306              		.loc 1 1044 3 is_stmt 1 view .LVU64
 307 0004 0268     		ldr	r2, [r0]
 308 0006 1368     		ldr	r3, [r2]
 309 0008 23F00103 		bic	r3, r3, #1
 310 000c 1360     		str	r3, [r2]
1047:Drivers/STM32F1xx_HAL_Driver/Src/stm32f1xx_hal_sram.c **** 
 311              		.loc 1 1047 3 view .LVU65
1047:Drivers/STM32F1xx_HAL_Driver/Src/stm32f1xx_hal_sram.c **** 
 312              		.loc 1 1047 16 is_stmt 0 view .LVU66
 313 000e 0123     		movs	r3, #1
ARM GAS  /tmp/ccxFNFiG.s 			page 26


 314 0010 81F84130 		strb	r3, [r1, #65]
1052:Drivers/STM32F1xx_HAL_Driver/Src/stm32f1xx_hal_sram.c **** #endif /* USE_HAL_SRAM_REGISTER_CALLBACKS */
 315              		.loc 1 1052 3 is_stmt 1 view .LVU67
 316 0014 FFF7FEFF 		bl	HAL_SRAM_DMA_XferCpltCallback
 317              	.LVL22:
1054:Drivers/STM32F1xx_HAL_Driver/Src/stm32f1xx_hal_sram.c **** 
 318              		.loc 1 1054 1 is_stmt 0 view .LVU68
 319 0018 08BD     		pop	{r3, pc}
 320              		.cfi_endproc
 321              	.LFE82:
 323              		.section	.text.HAL_SRAM_DMA_XferErrorCallback,"ax",%progbits
 324              		.align	1
 325              		.weak	HAL_SRAM_DMA_XferErrorCallback
 326              		.syntax unified
 327              		.thumb
 328              		.thumb_func
 330              	HAL_SRAM_DMA_XferErrorCallback:
 331              	.LVL23:
 332              	.LFB70:
 305:Drivers/STM32F1xx_HAL_Driver/Src/stm32f1xx_hal_sram.c ****   /* Prevent unused argument(s) compilation warning */
 333              		.loc 1 305 1 is_stmt 1 view -0
 334              		.cfi_startproc
 335              		@ args = 0, pretend = 0, frame = 0
 336              		@ frame_needed = 0, uses_anonymous_args = 0
 337              		@ link register save eliminated.
 307:Drivers/STM32F1xx_HAL_Driver/Src/stm32f1xx_hal_sram.c **** 
 338              		.loc 1 307 3 view .LVU70
 312:Drivers/STM32F1xx_HAL_Driver/Src/stm32f1xx_hal_sram.c **** 
 339              		.loc 1 312 1 is_stmt 0 view .LVU71
 340 0000 7047     		bx	lr
 341              		.cfi_endproc
 342              	.LFE70:
 344              		.section	.text.SRAM_DMAError,"ax",%progbits
 345              		.align	1
 346              		.syntax unified
 347              		.thumb
 348              		.thumb_func
 350              	SRAM_DMAError:
 351              	.LVL24:
 352              	.LFB84:
1077:Drivers/STM32F1xx_HAL_Driver/Src/stm32f1xx_hal_sram.c **** 
1078:Drivers/STM32F1xx_HAL_Driver/Src/stm32f1xx_hal_sram.c **** /**
1079:Drivers/STM32F1xx_HAL_Driver/Src/stm32f1xx_hal_sram.c ****   * @brief  DMA SRAM error callback.
1080:Drivers/STM32F1xx_HAL_Driver/Src/stm32f1xx_hal_sram.c ****   * @param  hdma : DMA handle
1081:Drivers/STM32F1xx_HAL_Driver/Src/stm32f1xx_hal_sram.c ****   * @retval None
1082:Drivers/STM32F1xx_HAL_Driver/Src/stm32f1xx_hal_sram.c ****   */
1083:Drivers/STM32F1xx_HAL_Driver/Src/stm32f1xx_hal_sram.c **** static void SRAM_DMAError(DMA_HandleTypeDef *hdma)
1084:Drivers/STM32F1xx_HAL_Driver/Src/stm32f1xx_hal_sram.c **** {
 353              		.loc 1 1084 1 is_stmt 1 view -0
 354              		.cfi_startproc
 355              		@ args = 0, pretend = 0, frame = 0
 356              		@ frame_needed = 0, uses_anonymous_args = 0
 357              		.loc 1 1084 1 is_stmt 0 view .LVU73
 358 0000 08B5     		push	{r3, lr}
 359              	.LCFI6:
 360              		.cfi_def_cfa_offset 8
 361              		.cfi_offset 3, -8
ARM GAS  /tmp/ccxFNFiG.s 			page 27


 362              		.cfi_offset 14, -4
1085:Drivers/STM32F1xx_HAL_Driver/Src/stm32f1xx_hal_sram.c ****   SRAM_HandleTypeDef *hsram = (SRAM_HandleTypeDef *)(hdma->Parent);
 363              		.loc 1 1085 3 is_stmt 1 view .LVU74
 364              		.loc 1 1085 23 is_stmt 0 view .LVU75
 365 0002 416A     		ldr	r1, [r0, #36]
 366              	.LVL25:
1086:Drivers/STM32F1xx_HAL_Driver/Src/stm32f1xx_hal_sram.c **** 
1087:Drivers/STM32F1xx_HAL_Driver/Src/stm32f1xx_hal_sram.c ****   /* Disable the DMA channel */
1088:Drivers/STM32F1xx_HAL_Driver/Src/stm32f1xx_hal_sram.c ****   __HAL_DMA_DISABLE(hdma);
 367              		.loc 1 1088 3 is_stmt 1 view .LVU76
 368 0004 0268     		ldr	r2, [r0]
 369 0006 1368     		ldr	r3, [r2]
 370 0008 23F00103 		bic	r3, r3, #1
 371 000c 1360     		str	r3, [r2]
1089:Drivers/STM32F1xx_HAL_Driver/Src/stm32f1xx_hal_sram.c **** 
1090:Drivers/STM32F1xx_HAL_Driver/Src/stm32f1xx_hal_sram.c ****   /* Update the SRAM controller state */
1091:Drivers/STM32F1xx_HAL_Driver/Src/stm32f1xx_hal_sram.c ****   hsram->State = HAL_SRAM_STATE_ERROR;
 372              		.loc 1 1091 3 view .LVU77
 373              		.loc 1 1091 16 is_stmt 0 view .LVU78
 374 000e 0323     		movs	r3, #3
 375 0010 81F84130 		strb	r3, [r1, #65]
1092:Drivers/STM32F1xx_HAL_Driver/Src/stm32f1xx_hal_sram.c **** 
1093:Drivers/STM32F1xx_HAL_Driver/Src/stm32f1xx_hal_sram.c **** #if (USE_HAL_SRAM_REGISTER_CALLBACKS == 1)
1094:Drivers/STM32F1xx_HAL_Driver/Src/stm32f1xx_hal_sram.c ****   hsram->DmaXferErrorCallback(hdma);
1095:Drivers/STM32F1xx_HAL_Driver/Src/stm32f1xx_hal_sram.c **** #else
1096:Drivers/STM32F1xx_HAL_Driver/Src/stm32f1xx_hal_sram.c ****   HAL_SRAM_DMA_XferErrorCallback(hdma);
 376              		.loc 1 1096 3 is_stmt 1 view .LVU79
 377 0014 FFF7FEFF 		bl	HAL_SRAM_DMA_XferErrorCallback
 378              	.LVL26:
1097:Drivers/STM32F1xx_HAL_Driver/Src/stm32f1xx_hal_sram.c **** #endif /* USE_HAL_SRAM_REGISTER_CALLBACKS */
1098:Drivers/STM32F1xx_HAL_Driver/Src/stm32f1xx_hal_sram.c **** }
 379              		.loc 1 1098 1 is_stmt 0 view .LVU80
 380 0018 08BD     		pop	{r3, pc}
 381              		.cfi_endproc
 382              	.LFE84:
 384              		.section	.text.HAL_SRAM_Read_8b,"ax",%progbits
 385              		.align	1
 386              		.global	HAL_SRAM_Read_8b
 387              		.syntax unified
 388              		.thumb
 389              		.thumb_func
 391              	HAL_SRAM_Read_8b:
 392              	.LVL27:
 393              	.LFB71:
 343:Drivers/STM32F1xx_HAL_Driver/Src/stm32f1xx_hal_sram.c ****   uint32_t size;
 394              		.loc 1 343 1 is_stmt 1 view -0
 395              		.cfi_startproc
 396              		@ args = 0, pretend = 0, frame = 0
 397              		@ frame_needed = 0, uses_anonymous_args = 0
 343:Drivers/STM32F1xx_HAL_Driver/Src/stm32f1xx_hal_sram.c ****   uint32_t size;
 398              		.loc 1 343 1 is_stmt 0 view .LVU82
 399 0000 00B5     		push	{lr}
 400              	.LCFI7:
 401              		.cfi_def_cfa_offset 4
 402              		.cfi_offset 14, -4
 344:Drivers/STM32F1xx_HAL_Driver/Src/stm32f1xx_hal_sram.c ****   __IO uint8_t *psramaddress = (uint8_t *)pAddress;
 403              		.loc 1 344 3 is_stmt 1 view .LVU83
ARM GAS  /tmp/ccxFNFiG.s 			page 28


 345:Drivers/STM32F1xx_HAL_Driver/Src/stm32f1xx_hal_sram.c ****   uint8_t *pdestbuff = pDstBuffer;
 404              		.loc 1 345 3 view .LVU84
 405              	.LVL28:
 346:Drivers/STM32F1xx_HAL_Driver/Src/stm32f1xx_hal_sram.c ****   HAL_SRAM_StateTypeDef state = hsram->State;
 406              		.loc 1 346 3 view .LVU85
 347:Drivers/STM32F1xx_HAL_Driver/Src/stm32f1xx_hal_sram.c **** 
 407              		.loc 1 347 3 view .LVU86
 347:Drivers/STM32F1xx_HAL_Driver/Src/stm32f1xx_hal_sram.c **** 
 408              		.loc 1 347 25 is_stmt 0 view .LVU87
 409 0002 90F841E0 		ldrb	lr, [r0, #65]	@ zero_extendqisi2
 410 0006 5FFA8EFE 		uxtb	lr, lr
 411              	.LVL29:
 350:Drivers/STM32F1xx_HAL_Driver/Src/stm32f1xx_hal_sram.c ****   {
 412              		.loc 1 350 3 is_stmt 1 view .LVU88
 350:Drivers/STM32F1xx_HAL_Driver/Src/stm32f1xx_hal_sram.c ****   {
 413              		.loc 1 350 6 is_stmt 0 view .LVU89
 414 000a BEF1010F 		cmp	lr, #1
 415 000e 02D0     		beq	.L24
 350:Drivers/STM32F1xx_HAL_Driver/Src/stm32f1xx_hal_sram.c ****   {
 416              		.loc 1 350 39 discriminator 1 view .LVU90
 417 0010 BEF1040F 		cmp	lr, #4
 418 0014 1BD1     		bne	.L28
 419              	.L24:
 353:Drivers/STM32F1xx_HAL_Driver/Src/stm32f1xx_hal_sram.c **** 
 420              		.loc 1 353 5 is_stmt 1 view .LVU91
 353:Drivers/STM32F1xx_HAL_Driver/Src/stm32f1xx_hal_sram.c **** 
 421              		.loc 1 353 5 view .LVU92
 422 0016 90F840C0 		ldrb	ip, [r0, #64]	@ zero_extendqisi2
 423 001a BCF1010F 		cmp	ip, #1
 424 001e 18D0     		beq	.L29
 353:Drivers/STM32F1xx_HAL_Driver/Src/stm32f1xx_hal_sram.c **** 
 425              		.loc 1 353 5 discriminator 2 view .LVU93
 426 0020 4FF0010C 		mov	ip, #1
 427 0024 80F840C0 		strb	ip, [r0, #64]
 353:Drivers/STM32F1xx_HAL_Driver/Src/stm32f1xx_hal_sram.c **** 
 428              		.loc 1 353 5 discriminator 2 view .LVU94
 356:Drivers/STM32F1xx_HAL_Driver/Src/stm32f1xx_hal_sram.c **** 
 429              		.loc 1 356 5 discriminator 2 view .LVU95
 356:Drivers/STM32F1xx_HAL_Driver/Src/stm32f1xx_hal_sram.c **** 
 430              		.loc 1 356 18 is_stmt 0 discriminator 2 view .LVU96
 431 0028 4FF0020C 		mov	ip, #2
 432 002c 80F841C0 		strb	ip, [r0, #65]
 359:Drivers/STM32F1xx_HAL_Driver/Src/stm32f1xx_hal_sram.c ****     {
 433              		.loc 1 359 5 is_stmt 1 discriminator 2 view .LVU97
 434              	.LVL30:
 359:Drivers/STM32F1xx_HAL_Driver/Src/stm32f1xx_hal_sram.c ****     {
 435              		.loc 1 359 5 is_stmt 0 discriminator 2 view .LVU98
 436 0030 04E0     		b	.L26
 437              	.LVL31:
 438              	.L27:
 361:Drivers/STM32F1xx_HAL_Driver/Src/stm32f1xx_hal_sram.c ****       pdestbuff++;
 439              		.loc 1 361 7 is_stmt 1 discriminator 3 view .LVU99
 361:Drivers/STM32F1xx_HAL_Driver/Src/stm32f1xx_hal_sram.c ****       pdestbuff++;
 440              		.loc 1 361 20 is_stmt 0 discriminator 3 view .LVU100
 441 0032 11F801CB 		ldrb	ip, [r1], #1	@ zero_extendqisi2
 442              	.LVL32:
 361:Drivers/STM32F1xx_HAL_Driver/Src/stm32f1xx_hal_sram.c ****       pdestbuff++;
ARM GAS  /tmp/ccxFNFiG.s 			page 29


 443              		.loc 1 361 18 discriminator 3 view .LVU101
 444 0036 02F801CB 		strb	ip, [r2], #1
 445              	.LVL33:
 362:Drivers/STM32F1xx_HAL_Driver/Src/stm32f1xx_hal_sram.c ****       psramaddress++;
 446              		.loc 1 362 7 is_stmt 1 discriminator 3 view .LVU102
 363:Drivers/STM32F1xx_HAL_Driver/Src/stm32f1xx_hal_sram.c ****     }
 447              		.loc 1 363 7 discriminator 3 view .LVU103
 359:Drivers/STM32F1xx_HAL_Driver/Src/stm32f1xx_hal_sram.c ****     {
 448              		.loc 1 359 41 discriminator 3 view .LVU104
 359:Drivers/STM32F1xx_HAL_Driver/Src/stm32f1xx_hal_sram.c ****     {
 449              		.loc 1 359 45 is_stmt 0 discriminator 3 view .LVU105
 450 003a 013B     		subs	r3, r3, #1
 451              	.LVL34:
 452              	.L26:
 359:Drivers/STM32F1xx_HAL_Driver/Src/stm32f1xx_hal_sram.c ****     {
 453              		.loc 1 359 29 is_stmt 1 discriminator 1 view .LVU106
 359:Drivers/STM32F1xx_HAL_Driver/Src/stm32f1xx_hal_sram.c ****     {
 454              		.loc 1 359 5 is_stmt 0 discriminator 1 view .LVU107
 455 003c 002B     		cmp	r3, #0
 456 003e F8D1     		bne	.L27
 367:Drivers/STM32F1xx_HAL_Driver/Src/stm32f1xx_hal_sram.c **** 
 457              		.loc 1 367 5 is_stmt 1 view .LVU108
 367:Drivers/STM32F1xx_HAL_Driver/Src/stm32f1xx_hal_sram.c **** 
 458              		.loc 1 367 18 is_stmt 0 view .LVU109
 459 0040 80F841E0 		strb	lr, [r0, #65]
 370:Drivers/STM32F1xx_HAL_Driver/Src/stm32f1xx_hal_sram.c ****   }
 460              		.loc 1 370 5 is_stmt 1 view .LVU110
 370:Drivers/STM32F1xx_HAL_Driver/Src/stm32f1xx_hal_sram.c ****   }
 461              		.loc 1 370 5 view .LVU111
 462 0044 80F84030 		strb	r3, [r0, #64]
 370:Drivers/STM32F1xx_HAL_Driver/Src/stm32f1xx_hal_sram.c ****   }
 463              		.loc 1 370 5 view .LVU112
 377:Drivers/STM32F1xx_HAL_Driver/Src/stm32f1xx_hal_sram.c **** }
 464              		.loc 1 377 3 view .LVU113
 377:Drivers/STM32F1xx_HAL_Driver/Src/stm32f1xx_hal_sram.c **** }
 465              		.loc 1 377 10 is_stmt 0 view .LVU114
 466 0048 1846     		mov	r0, r3
 467              	.LVL35:
 468              	.L25:
 378:Drivers/STM32F1xx_HAL_Driver/Src/stm32f1xx_hal_sram.c **** 
 469              		.loc 1 378 1 view .LVU115
 470 004a 5DF804FB 		ldr	pc, [sp], #4
 471              	.LVL36:
 472              	.L28:
 374:Drivers/STM32F1xx_HAL_Driver/Src/stm32f1xx_hal_sram.c ****   }
 473              		.loc 1 374 12 view .LVU116
 474 004e 0120     		movs	r0, #1
 475              	.LVL37:
 374:Drivers/STM32F1xx_HAL_Driver/Src/stm32f1xx_hal_sram.c ****   }
 476              		.loc 1 374 12 view .LVU117
 477 0050 FBE7     		b	.L25
 478              	.LVL38:
 479              	.L29:
 353:Drivers/STM32F1xx_HAL_Driver/Src/stm32f1xx_hal_sram.c **** 
 480              		.loc 1 353 5 view .LVU118
 481 0052 0220     		movs	r0, #2
 482              	.LVL39:
ARM GAS  /tmp/ccxFNFiG.s 			page 30


 353:Drivers/STM32F1xx_HAL_Driver/Src/stm32f1xx_hal_sram.c **** 
 483              		.loc 1 353 5 view .LVU119
 484 0054 F9E7     		b	.L25
 485              		.cfi_endproc
 486              	.LFE71:
 488              		.section	.text.HAL_SRAM_Write_8b,"ax",%progbits
 489              		.align	1
 490              		.global	HAL_SRAM_Write_8b
 491              		.syntax unified
 492              		.thumb
 493              		.thumb_func
 495              	HAL_SRAM_Write_8b:
 496              	.LVL40:
 497              	.LFB72:
 391:Drivers/STM32F1xx_HAL_Driver/Src/stm32f1xx_hal_sram.c ****   uint32_t size;
 498              		.loc 1 391 1 is_stmt 1 view -0
 499              		.cfi_startproc
 500              		@ args = 0, pretend = 0, frame = 0
 501              		@ frame_needed = 0, uses_anonymous_args = 0
 502              		@ link register save eliminated.
 392:Drivers/STM32F1xx_HAL_Driver/Src/stm32f1xx_hal_sram.c ****   __IO uint8_t *psramaddress = (uint8_t *)pAddress;
 503              		.loc 1 392 3 view .LVU121
 393:Drivers/STM32F1xx_HAL_Driver/Src/stm32f1xx_hal_sram.c ****   uint8_t *psrcbuff = pSrcBuffer;
 504              		.loc 1 393 3 view .LVU122
 394:Drivers/STM32F1xx_HAL_Driver/Src/stm32f1xx_hal_sram.c **** 
 505              		.loc 1 394 3 view .LVU123
 397:Drivers/STM32F1xx_HAL_Driver/Src/stm32f1xx_hal_sram.c ****   {
 506              		.loc 1 397 3 view .LVU124
 397:Drivers/STM32F1xx_HAL_Driver/Src/stm32f1xx_hal_sram.c ****   {
 507              		.loc 1 397 12 is_stmt 0 view .LVU125
 508 0000 90F841C0 		ldrb	ip, [r0, #65]	@ zero_extendqisi2
 509 0004 5FFA8CFC 		uxtb	ip, ip
 397:Drivers/STM32F1xx_HAL_Driver/Src/stm32f1xx_hal_sram.c ****   {
 510              		.loc 1 397 6 view .LVU126
 511 0008 BCF1010F 		cmp	ip, #1
 512 000c 1CD1     		bne	.L35
 400:Drivers/STM32F1xx_HAL_Driver/Src/stm32f1xx_hal_sram.c **** 
 513              		.loc 1 400 5 is_stmt 1 view .LVU127
 400:Drivers/STM32F1xx_HAL_Driver/Src/stm32f1xx_hal_sram.c **** 
 514              		.loc 1 400 5 view .LVU128
 515 000e 90F840C0 		ldrb	ip, [r0, #64]	@ zero_extendqisi2
 516 0012 BCF1010F 		cmp	ip, #1
 517 0016 19D0     		beq	.L36
 400:Drivers/STM32F1xx_HAL_Driver/Src/stm32f1xx_hal_sram.c **** 
 518              		.loc 1 400 5 discriminator 2 view .LVU129
 519 0018 4FF0010C 		mov	ip, #1
 520 001c 80F840C0 		strb	ip, [r0, #64]
 400:Drivers/STM32F1xx_HAL_Driver/Src/stm32f1xx_hal_sram.c **** 
 521              		.loc 1 400 5 discriminator 2 view .LVU130
 403:Drivers/STM32F1xx_HAL_Driver/Src/stm32f1xx_hal_sram.c **** 
 522              		.loc 1 403 5 discriminator 2 view .LVU131
 403:Drivers/STM32F1xx_HAL_Driver/Src/stm32f1xx_hal_sram.c **** 
 523              		.loc 1 403 18 is_stmt 0 discriminator 2 view .LVU132
 524 0020 4FF0020C 		mov	ip, #2
 525 0024 80F841C0 		strb	ip, [r0, #65]
 406:Drivers/STM32F1xx_HAL_Driver/Src/stm32f1xx_hal_sram.c ****     {
 526              		.loc 1 406 5 is_stmt 1 discriminator 2 view .LVU133
ARM GAS  /tmp/ccxFNFiG.s 			page 31


 527              	.LVL41:
 406:Drivers/STM32F1xx_HAL_Driver/Src/stm32f1xx_hal_sram.c ****     {
 528              		.loc 1 406 5 is_stmt 0 discriminator 2 view .LVU134
 529 0028 04E0     		b	.L33
 530              	.LVL42:
 531              	.L34:
 408:Drivers/STM32F1xx_HAL_Driver/Src/stm32f1xx_hal_sram.c ****       psrcbuff++;
 532              		.loc 1 408 7 is_stmt 1 discriminator 3 view .LVU135
 408:Drivers/STM32F1xx_HAL_Driver/Src/stm32f1xx_hal_sram.c ****       psrcbuff++;
 533              		.loc 1 408 23 is_stmt 0 discriminator 3 view .LVU136
 534 002a 12F801CB 		ldrb	ip, [r2], #1	@ zero_extendqisi2
 535              	.LVL43:
 408:Drivers/STM32F1xx_HAL_Driver/Src/stm32f1xx_hal_sram.c ****       psrcbuff++;
 536              		.loc 1 408 21 discriminator 3 view .LVU137
 537 002e 01F801CB 		strb	ip, [r1], #1
 538              	.LVL44:
 409:Drivers/STM32F1xx_HAL_Driver/Src/stm32f1xx_hal_sram.c ****       psramaddress++;
 539              		.loc 1 409 7 is_stmt 1 discriminator 3 view .LVU138
 410:Drivers/STM32F1xx_HAL_Driver/Src/stm32f1xx_hal_sram.c ****     }
 540              		.loc 1 410 7 discriminator 3 view .LVU139
 406:Drivers/STM32F1xx_HAL_Driver/Src/stm32f1xx_hal_sram.c ****     {
 541              		.loc 1 406 41 discriminator 3 view .LVU140
 406:Drivers/STM32F1xx_HAL_Driver/Src/stm32f1xx_hal_sram.c ****     {
 542              		.loc 1 406 45 is_stmt 0 discriminator 3 view .LVU141
 543 0032 013B     		subs	r3, r3, #1
 544              	.LVL45:
 545              	.L33:
 406:Drivers/STM32F1xx_HAL_Driver/Src/stm32f1xx_hal_sram.c ****     {
 546              		.loc 1 406 29 is_stmt 1 discriminator 1 view .LVU142
 406:Drivers/STM32F1xx_HAL_Driver/Src/stm32f1xx_hal_sram.c ****     {
 547              		.loc 1 406 5 is_stmt 0 discriminator 1 view .LVU143
 548 0034 002B     		cmp	r3, #0
 549 0036 F8D1     		bne	.L34
 414:Drivers/STM32F1xx_HAL_Driver/Src/stm32f1xx_hal_sram.c **** 
 550              		.loc 1 414 5 is_stmt 1 view .LVU144
 414:Drivers/STM32F1xx_HAL_Driver/Src/stm32f1xx_hal_sram.c **** 
 551              		.loc 1 414 18 is_stmt 0 view .LVU145
 552 0038 0123     		movs	r3, #1
 553              	.LVL46:
 414:Drivers/STM32F1xx_HAL_Driver/Src/stm32f1xx_hal_sram.c **** 
 554              		.loc 1 414 18 view .LVU146
 555 003a 80F84130 		strb	r3, [r0, #65]
 417:Drivers/STM32F1xx_HAL_Driver/Src/stm32f1xx_hal_sram.c ****   }
 556              		.loc 1 417 5 is_stmt 1 view .LVU147
 417:Drivers/STM32F1xx_HAL_Driver/Src/stm32f1xx_hal_sram.c ****   }
 557              		.loc 1 417 5 view .LVU148
 558 003e 0023     		movs	r3, #0
 559 0040 80F84030 		strb	r3, [r0, #64]
 417:Drivers/STM32F1xx_HAL_Driver/Src/stm32f1xx_hal_sram.c ****   }
 560              		.loc 1 417 5 view .LVU149
 424:Drivers/STM32F1xx_HAL_Driver/Src/stm32f1xx_hal_sram.c **** }
 561              		.loc 1 424 3 view .LVU150
 424:Drivers/STM32F1xx_HAL_Driver/Src/stm32f1xx_hal_sram.c **** }
 562              		.loc 1 424 10 is_stmt 0 view .LVU151
 563 0044 1846     		mov	r0, r3
 564              	.LVL47:
 424:Drivers/STM32F1xx_HAL_Driver/Src/stm32f1xx_hal_sram.c **** }
ARM GAS  /tmp/ccxFNFiG.s 			page 32


 565              		.loc 1 424 10 view .LVU152
 566 0046 7047     		bx	lr
 567              	.LVL48:
 568              	.L35:
 421:Drivers/STM32F1xx_HAL_Driver/Src/stm32f1xx_hal_sram.c ****   }
 569              		.loc 1 421 12 view .LVU153
 570 0048 0120     		movs	r0, #1
 571              	.LVL49:
 421:Drivers/STM32F1xx_HAL_Driver/Src/stm32f1xx_hal_sram.c ****   }
 572              		.loc 1 421 12 view .LVU154
 573 004a 7047     		bx	lr
 574              	.LVL50:
 575              	.L36:
 400:Drivers/STM32F1xx_HAL_Driver/Src/stm32f1xx_hal_sram.c **** 
 576              		.loc 1 400 5 view .LVU155
 577 004c 0220     		movs	r0, #2
 578              	.LVL51:
 425:Drivers/STM32F1xx_HAL_Driver/Src/stm32f1xx_hal_sram.c **** 
 579              		.loc 1 425 1 view .LVU156
 580 004e 7047     		bx	lr
 581              		.cfi_endproc
 582              	.LFE72:
 584              		.section	.text.HAL_SRAM_Read_16b,"ax",%progbits
 585              		.align	1
 586              		.global	HAL_SRAM_Read_16b
 587              		.syntax unified
 588              		.thumb
 589              		.thumb_func
 591              	HAL_SRAM_Read_16b:
 592              	.LVL52:
 593              	.LFB73:
 438:Drivers/STM32F1xx_HAL_Driver/Src/stm32f1xx_hal_sram.c ****   uint32_t size;
 594              		.loc 1 438 1 is_stmt 1 view -0
 595              		.cfi_startproc
 596              		@ args = 0, pretend = 0, frame = 0
 597              		@ frame_needed = 0, uses_anonymous_args = 0
 438:Drivers/STM32F1xx_HAL_Driver/Src/stm32f1xx_hal_sram.c ****   uint32_t size;
 598              		.loc 1 438 1 is_stmt 0 view .LVU158
 599 0000 30B5     		push	{r4, r5, lr}
 600              	.LCFI8:
 601              		.cfi_def_cfa_offset 12
 602              		.cfi_offset 4, -12
 603              		.cfi_offset 5, -8
 604              		.cfi_offset 14, -4
 439:Drivers/STM32F1xx_HAL_Driver/Src/stm32f1xx_hal_sram.c ****   __IO uint32_t *psramaddress = pAddress;
 605              		.loc 1 439 3 is_stmt 1 view .LVU159
 440:Drivers/STM32F1xx_HAL_Driver/Src/stm32f1xx_hal_sram.c ****   uint16_t *pdestbuff = pDstBuffer;
 606              		.loc 1 440 3 view .LVU160
 607              	.LVL53:
 441:Drivers/STM32F1xx_HAL_Driver/Src/stm32f1xx_hal_sram.c ****   uint8_t limit;
 608              		.loc 1 441 3 view .LVU161
 442:Drivers/STM32F1xx_HAL_Driver/Src/stm32f1xx_hal_sram.c ****   HAL_SRAM_StateTypeDef state = hsram->State;
 609              		.loc 1 442 3 view .LVU162
 443:Drivers/STM32F1xx_HAL_Driver/Src/stm32f1xx_hal_sram.c **** 
 610              		.loc 1 443 3 view .LVU163
 443:Drivers/STM32F1xx_HAL_Driver/Src/stm32f1xx_hal_sram.c **** 
 611              		.loc 1 443 25 is_stmt 0 view .LVU164
ARM GAS  /tmp/ccxFNFiG.s 			page 33


 612 0002 90F841E0 		ldrb	lr, [r0, #65]	@ zero_extendqisi2
 613 0006 5FFA8EFE 		uxtb	lr, lr
 614              	.LVL54:
 446:Drivers/STM32F1xx_HAL_Driver/Src/stm32f1xx_hal_sram.c ****   {
 615              		.loc 1 446 3 is_stmt 1 view .LVU165
 446:Drivers/STM32F1xx_HAL_Driver/Src/stm32f1xx_hal_sram.c ****   {
 616              		.loc 1 446 6 is_stmt 0 view .LVU166
 617 000a BEF1010F 		cmp	lr, #1
 618 000e 02D0     		beq	.L38
 446:Drivers/STM32F1xx_HAL_Driver/Src/stm32f1xx_hal_sram.c ****   {
 619              		.loc 1 446 39 discriminator 1 view .LVU167
 620 0010 BEF1040F 		cmp	lr, #4
 621 0014 22D1     		bne	.L43
 622              	.L38:
 449:Drivers/STM32F1xx_HAL_Driver/Src/stm32f1xx_hal_sram.c **** 
 623              		.loc 1 449 5 is_stmt 1 view .LVU168
 449:Drivers/STM32F1xx_HAL_Driver/Src/stm32f1xx_hal_sram.c **** 
 624              		.loc 1 449 5 view .LVU169
 625 0016 90F84040 		ldrb	r4, [r0, #64]	@ zero_extendqisi2
 626 001a 012C     		cmp	r4, #1
 627 001c 20D0     		beq	.L44
 449:Drivers/STM32F1xx_HAL_Driver/Src/stm32f1xx_hal_sram.c **** 
 628              		.loc 1 449 5 discriminator 2 view .LVU170
 629 001e 0124     		movs	r4, #1
 630 0020 80F84040 		strb	r4, [r0, #64]
 449:Drivers/STM32F1xx_HAL_Driver/Src/stm32f1xx_hal_sram.c **** 
 631              		.loc 1 449 5 discriminator 2 view .LVU171
 452:Drivers/STM32F1xx_HAL_Driver/Src/stm32f1xx_hal_sram.c **** 
 632              		.loc 1 452 5 discriminator 2 view .LVU172
 452:Drivers/STM32F1xx_HAL_Driver/Src/stm32f1xx_hal_sram.c **** 
 633              		.loc 1 452 18 is_stmt 0 discriminator 2 view .LVU173
 634 0024 0224     		movs	r4, #2
 635 0026 80F84140 		strb	r4, [r0, #65]
 455:Drivers/STM32F1xx_HAL_Driver/Src/stm32f1xx_hal_sram.c **** 
 636              		.loc 1 455 5 is_stmt 1 discriminator 2 view .LVU174
 455:Drivers/STM32F1xx_HAL_Driver/Src/stm32f1xx_hal_sram.c **** 
 637              		.loc 1 455 11 is_stmt 0 discriminator 2 view .LVU175
 638 002a 03F00105 		and	r5, r3, #1
 639              	.LVL55:
 458:Drivers/STM32F1xx_HAL_Driver/Src/stm32f1xx_hal_sram.c ****     {
 640              		.loc 1 458 5 is_stmt 1 discriminator 2 view .LVU176
 458:Drivers/STM32F1xx_HAL_Driver/Src/stm32f1xx_hal_sram.c ****     {
 641              		.loc 1 458 5 is_stmt 0 discriminator 2 view .LVU177
 642 002e 09E0     		b	.L40
 643              	.LVL56:
 644              	.L41:
 460:Drivers/STM32F1xx_HAL_Driver/Src/stm32f1xx_hal_sram.c ****       pdestbuff++;
 645              		.loc 1 460 7 is_stmt 1 discriminator 3 view .LVU178
 460:Drivers/STM32F1xx_HAL_Driver/Src/stm32f1xx_hal_sram.c ****       pdestbuff++;
 646              		.loc 1 460 32 is_stmt 0 discriminator 3 view .LVU179
 647 0030 0C68     		ldr	r4, [r1]
 460:Drivers/STM32F1xx_HAL_Driver/Src/stm32f1xx_hal_sram.c ****       pdestbuff++;
 648              		.loc 1 460 18 discriminator 3 view .LVU180
 649 0032 1480     		strh	r4, [r2]	@ movhi
 461:Drivers/STM32F1xx_HAL_Driver/Src/stm32f1xx_hal_sram.c ****       *pdestbuff = (uint16_t)(((*psramaddress) & 0xFFFF0000U) >> 16U);
 650              		.loc 1 461 7 is_stmt 1 discriminator 3 view .LVU181
 651              	.LVL57:
ARM GAS  /tmp/ccxFNFiG.s 			page 34


 462:Drivers/STM32F1xx_HAL_Driver/Src/stm32f1xx_hal_sram.c ****       pdestbuff++;
 652              		.loc 1 462 7 discriminator 3 view .LVU182
 462:Drivers/STM32F1xx_HAL_Driver/Src/stm32f1xx_hal_sram.c ****       pdestbuff++;
 653              		.loc 1 462 33 is_stmt 0 discriminator 3 view .LVU183
 654 0034 51F8044B 		ldr	r4, [r1], #4
 655              	.LVL58:
 462:Drivers/STM32F1xx_HAL_Driver/Src/stm32f1xx_hal_sram.c ****       pdestbuff++;
 656              		.loc 1 462 20 discriminator 3 view .LVU184
 657 0038 4FEA144C 		lsr	ip, r4, #16
 462:Drivers/STM32F1xx_HAL_Driver/Src/stm32f1xx_hal_sram.c ****       pdestbuff++;
 658              		.loc 1 462 18 discriminator 3 view .LVU185
 659 003c A2F802C0 		strh	ip, [r2, #2]	@ movhi
 463:Drivers/STM32F1xx_HAL_Driver/Src/stm32f1xx_hal_sram.c ****       psramaddress++;
 660              		.loc 1 463 7 is_stmt 1 discriminator 3 view .LVU186
 463:Drivers/STM32F1xx_HAL_Driver/Src/stm32f1xx_hal_sram.c ****       psramaddress++;
 661              		.loc 1 463 16 is_stmt 0 discriminator 3 view .LVU187
 662 0040 0432     		adds	r2, r2, #4
 663              	.LVL59:
 464:Drivers/STM32F1xx_HAL_Driver/Src/stm32f1xx_hal_sram.c ****     }
 664              		.loc 1 464 7 is_stmt 1 discriminator 3 view .LVU188
 458:Drivers/STM32F1xx_HAL_Driver/Src/stm32f1xx_hal_sram.c ****     {
 665              		.loc 1 458 44 discriminator 3 view .LVU189
 458:Drivers/STM32F1xx_HAL_Driver/Src/stm32f1xx_hal_sram.c ****     {
 666              		.loc 1 458 49 is_stmt 0 discriminator 3 view .LVU190
 667 0042 023B     		subs	r3, r3, #2
 668              	.LVL60:
 669              	.L40:
 458:Drivers/STM32F1xx_HAL_Driver/Src/stm32f1xx_hal_sram.c ****     {
 670              		.loc 1 458 29 is_stmt 1 discriminator 1 view .LVU191
 458:Drivers/STM32F1xx_HAL_Driver/Src/stm32f1xx_hal_sram.c ****     {
 671              		.loc 1 458 5 is_stmt 0 discriminator 1 view .LVU192
 672 0044 9D42     		cmp	r5, r3
 673 0046 F3D1     		bne	.L41
 468:Drivers/STM32F1xx_HAL_Driver/Src/stm32f1xx_hal_sram.c ****     {
 674              		.loc 1 468 5 is_stmt 1 view .LVU193
 468:Drivers/STM32F1xx_HAL_Driver/Src/stm32f1xx_hal_sram.c ****     {
 675              		.loc 1 468 8 is_stmt 0 view .LVU194
 676 0048 0DB1     		cbz	r5, .L42
 470:Drivers/STM32F1xx_HAL_Driver/Src/stm32f1xx_hal_sram.c ****     }
 677              		.loc 1 470 7 is_stmt 1 view .LVU195
 470:Drivers/STM32F1xx_HAL_Driver/Src/stm32f1xx_hal_sram.c ****     }
 678              		.loc 1 470 32 is_stmt 0 view .LVU196
 679 004a 0B68     		ldr	r3, [r1]
 680              	.LVL61:
 470:Drivers/STM32F1xx_HAL_Driver/Src/stm32f1xx_hal_sram.c ****     }
 681              		.loc 1 470 18 view .LVU197
 682 004c 1380     		strh	r3, [r2]	@ movhi
 683              	.L42:
 474:Drivers/STM32F1xx_HAL_Driver/Src/stm32f1xx_hal_sram.c **** 
 684              		.loc 1 474 5 is_stmt 1 view .LVU198
 474:Drivers/STM32F1xx_HAL_Driver/Src/stm32f1xx_hal_sram.c **** 
 685              		.loc 1 474 18 is_stmt 0 view .LVU199
 686 004e 80F841E0 		strb	lr, [r0, #65]
 477:Drivers/STM32F1xx_HAL_Driver/Src/stm32f1xx_hal_sram.c ****   }
 687              		.loc 1 477 5 is_stmt 1 view .LVU200
 477:Drivers/STM32F1xx_HAL_Driver/Src/stm32f1xx_hal_sram.c ****   }
 688              		.loc 1 477 5 view .LVU201
ARM GAS  /tmp/ccxFNFiG.s 			page 35


 689 0052 0023     		movs	r3, #0
 690 0054 80F84030 		strb	r3, [r0, #64]
 477:Drivers/STM32F1xx_HAL_Driver/Src/stm32f1xx_hal_sram.c ****   }
 691              		.loc 1 477 5 view .LVU202
 484:Drivers/STM32F1xx_HAL_Driver/Src/stm32f1xx_hal_sram.c **** }
 692              		.loc 1 484 3 view .LVU203
 484:Drivers/STM32F1xx_HAL_Driver/Src/stm32f1xx_hal_sram.c **** }
 693              		.loc 1 484 10 is_stmt 0 view .LVU204
 694 0058 1846     		mov	r0, r3
 695              	.LVL62:
 696              	.L39:
 485:Drivers/STM32F1xx_HAL_Driver/Src/stm32f1xx_hal_sram.c **** 
 697              		.loc 1 485 1 view .LVU205
 698 005a 30BD     		pop	{r4, r5, pc}
 699              	.LVL63:
 700              	.L43:
 481:Drivers/STM32F1xx_HAL_Driver/Src/stm32f1xx_hal_sram.c ****   }
 701              		.loc 1 481 12 view .LVU206
 702 005c 0120     		movs	r0, #1
 703              	.LVL64:
 481:Drivers/STM32F1xx_HAL_Driver/Src/stm32f1xx_hal_sram.c ****   }
 704              		.loc 1 481 12 view .LVU207
 705 005e FCE7     		b	.L39
 706              	.LVL65:
 707              	.L44:
 449:Drivers/STM32F1xx_HAL_Driver/Src/stm32f1xx_hal_sram.c **** 
 708              		.loc 1 449 5 view .LVU208
 709 0060 0220     		movs	r0, #2
 710              	.LVL66:
 449:Drivers/STM32F1xx_HAL_Driver/Src/stm32f1xx_hal_sram.c **** 
 711              		.loc 1 449 5 view .LVU209
 712 0062 FAE7     		b	.L39
 713              		.cfi_endproc
 714              	.LFE73:
 716              		.section	.text.HAL_SRAM_Write_16b,"ax",%progbits
 717              		.align	1
 718              		.global	HAL_SRAM_Write_16b
 719              		.syntax unified
 720              		.thumb
 721              		.thumb_func
 723              	HAL_SRAM_Write_16b:
 724              	.LVL67:
 725              	.LFB74:
 498:Drivers/STM32F1xx_HAL_Driver/Src/stm32f1xx_hal_sram.c ****   uint32_t size;
 726              		.loc 1 498 1 is_stmt 1 view -0
 727              		.cfi_startproc
 728              		@ args = 0, pretend = 0, frame = 0
 729              		@ frame_needed = 0, uses_anonymous_args = 0
 730              		@ link register save eliminated.
 498:Drivers/STM32F1xx_HAL_Driver/Src/stm32f1xx_hal_sram.c ****   uint32_t size;
 731              		.loc 1 498 1 is_stmt 0 view .LVU211
 732 0000 30B4     		push	{r4, r5}
 733              	.LCFI9:
 734              		.cfi_def_cfa_offset 8
 735              		.cfi_offset 4, -8
 736              		.cfi_offset 5, -4
 499:Drivers/STM32F1xx_HAL_Driver/Src/stm32f1xx_hal_sram.c ****   __IO uint32_t *psramaddress = pAddress;
ARM GAS  /tmp/ccxFNFiG.s 			page 36


 737              		.loc 1 499 3 is_stmt 1 view .LVU212
 500:Drivers/STM32F1xx_HAL_Driver/Src/stm32f1xx_hal_sram.c ****   uint16_t *psrcbuff = pSrcBuffer;
 738              		.loc 1 500 3 view .LVU213
 739              	.LVL68:
 501:Drivers/STM32F1xx_HAL_Driver/Src/stm32f1xx_hal_sram.c ****   uint8_t limit;
 740              		.loc 1 501 3 view .LVU214
 502:Drivers/STM32F1xx_HAL_Driver/Src/stm32f1xx_hal_sram.c **** 
 741              		.loc 1 502 3 view .LVU215
 505:Drivers/STM32F1xx_HAL_Driver/Src/stm32f1xx_hal_sram.c ****   {
 742              		.loc 1 505 3 view .LVU216
 505:Drivers/STM32F1xx_HAL_Driver/Src/stm32f1xx_hal_sram.c ****   {
 743              		.loc 1 505 12 is_stmt 0 view .LVU217
 744 0002 90F84140 		ldrb	r4, [r0, #65]	@ zero_extendqisi2
 745 0006 E4B2     		uxtb	r4, r4
 505:Drivers/STM32F1xx_HAL_Driver/Src/stm32f1xx_hal_sram.c ****   {
 746              		.loc 1 505 6 view .LVU218
 747 0008 012C     		cmp	r4, #1
 748 000a 28D1     		bne	.L51
 508:Drivers/STM32F1xx_HAL_Driver/Src/stm32f1xx_hal_sram.c **** 
 749              		.loc 1 508 5 is_stmt 1 view .LVU219
 508:Drivers/STM32F1xx_HAL_Driver/Src/stm32f1xx_hal_sram.c **** 
 750              		.loc 1 508 5 view .LVU220
 751 000c 90F84040 		ldrb	r4, [r0, #64]	@ zero_extendqisi2
 752 0010 012C     		cmp	r4, #1
 753 0012 27D0     		beq	.L52
 508:Drivers/STM32F1xx_HAL_Driver/Src/stm32f1xx_hal_sram.c **** 
 754              		.loc 1 508 5 discriminator 2 view .LVU221
 755 0014 0124     		movs	r4, #1
 756 0016 80F84040 		strb	r4, [r0, #64]
 508:Drivers/STM32F1xx_HAL_Driver/Src/stm32f1xx_hal_sram.c **** 
 757              		.loc 1 508 5 discriminator 2 view .LVU222
 511:Drivers/STM32F1xx_HAL_Driver/Src/stm32f1xx_hal_sram.c **** 
 758              		.loc 1 511 5 discriminator 2 view .LVU223
 511:Drivers/STM32F1xx_HAL_Driver/Src/stm32f1xx_hal_sram.c **** 
 759              		.loc 1 511 18 is_stmt 0 discriminator 2 view .LVU224
 760 001a 0224     		movs	r4, #2
 761 001c 80F84140 		strb	r4, [r0, #65]
 514:Drivers/STM32F1xx_HAL_Driver/Src/stm32f1xx_hal_sram.c **** 
 762              		.loc 1 514 5 is_stmt 1 discriminator 2 view .LVU225
 514:Drivers/STM32F1xx_HAL_Driver/Src/stm32f1xx_hal_sram.c **** 
 763              		.loc 1 514 11 is_stmt 0 discriminator 2 view .LVU226
 764 0020 03F00105 		and	r5, r3, #1
 765              	.LVL69:
 517:Drivers/STM32F1xx_HAL_Driver/Src/stm32f1xx_hal_sram.c ****     {
 766              		.loc 1 517 5 is_stmt 1 discriminator 2 view .LVU227
 517:Drivers/STM32F1xx_HAL_Driver/Src/stm32f1xx_hal_sram.c ****     {
 767              		.loc 1 517 5 is_stmt 0 discriminator 2 view .LVU228
 768 0024 0AE0     		b	.L48
 769              	.LVL70:
 770              	.L49:
 519:Drivers/STM32F1xx_HAL_Driver/Src/stm32f1xx_hal_sram.c ****       psrcbuff++;
 771              		.loc 1 519 7 is_stmt 1 discriminator 3 view .LVU229
 519:Drivers/STM32F1xx_HAL_Driver/Src/stm32f1xx_hal_sram.c ****       psrcbuff++;
 772              		.loc 1 519 34 is_stmt 0 discriminator 3 view .LVU230
 773 0026 1488     		ldrh	r4, [r2]
 519:Drivers/STM32F1xx_HAL_Driver/Src/stm32f1xx_hal_sram.c ****       psrcbuff++;
 774              		.loc 1 519 21 discriminator 3 view .LVU231
ARM GAS  /tmp/ccxFNFiG.s 			page 37


 775 0028 0C60     		str	r4, [r1]
 520:Drivers/STM32F1xx_HAL_Driver/Src/stm32f1xx_hal_sram.c ****       *psramaddress |= ((uint32_t)(*psrcbuff) << 16U);
 776              		.loc 1 520 7 is_stmt 1 discriminator 3 view .LVU232
 777              	.LVL71:
 521:Drivers/STM32F1xx_HAL_Driver/Src/stm32f1xx_hal_sram.c ****       psrcbuff++;
 778              		.loc 1 521 7 discriminator 3 view .LVU233
 521:Drivers/STM32F1xx_HAL_Driver/Src/stm32f1xx_hal_sram.c ****       psrcbuff++;
 779              		.loc 1 521 21 is_stmt 0 discriminator 3 view .LVU234
 780 002a 0C68     		ldr	r4, [r1]
 521:Drivers/STM32F1xx_HAL_Driver/Src/stm32f1xx_hal_sram.c ****       psrcbuff++;
 781              		.loc 1 521 36 discriminator 3 view .LVU235
 782 002c B2F802C0 		ldrh	ip, [r2, #2]
 521:Drivers/STM32F1xx_HAL_Driver/Src/stm32f1xx_hal_sram.c ****       psrcbuff++;
 783              		.loc 1 521 21 discriminator 3 view .LVU236
 784 0030 44EA0C44 		orr	r4, r4, ip, lsl #16
 785 0034 41F8044B 		str	r4, [r1], #4
 786              	.LVL72:
 522:Drivers/STM32F1xx_HAL_Driver/Src/stm32f1xx_hal_sram.c ****       psramaddress++;
 787              		.loc 1 522 7 is_stmt 1 discriminator 3 view .LVU237
 522:Drivers/STM32F1xx_HAL_Driver/Src/stm32f1xx_hal_sram.c ****       psramaddress++;
 788              		.loc 1 522 15 is_stmt 0 discriminator 3 view .LVU238
 789 0038 0432     		adds	r2, r2, #4
 790              	.LVL73:
 523:Drivers/STM32F1xx_HAL_Driver/Src/stm32f1xx_hal_sram.c ****     }
 791              		.loc 1 523 7 is_stmt 1 discriminator 3 view .LVU239
 517:Drivers/STM32F1xx_HAL_Driver/Src/stm32f1xx_hal_sram.c ****     {
 792              		.loc 1 517 44 discriminator 3 view .LVU240
 517:Drivers/STM32F1xx_HAL_Driver/Src/stm32f1xx_hal_sram.c ****     {
 793              		.loc 1 517 49 is_stmt 0 discriminator 3 view .LVU241
 794 003a 023B     		subs	r3, r3, #2
 795              	.LVL74:
 796              	.L48:
 517:Drivers/STM32F1xx_HAL_Driver/Src/stm32f1xx_hal_sram.c ****     {
 797              		.loc 1 517 29 is_stmt 1 discriminator 1 view .LVU242
 517:Drivers/STM32F1xx_HAL_Driver/Src/stm32f1xx_hal_sram.c ****     {
 798              		.loc 1 517 5 is_stmt 0 discriminator 1 view .LVU243
 799 003c 9D42     		cmp	r5, r3
 800 003e F2D1     		bne	.L49
 527:Drivers/STM32F1xx_HAL_Driver/Src/stm32f1xx_hal_sram.c ****     {
 801              		.loc 1 527 5 is_stmt 1 view .LVU244
 527:Drivers/STM32F1xx_HAL_Driver/Src/stm32f1xx_hal_sram.c ****     {
 802              		.loc 1 527 8 is_stmt 0 view .LVU245
 803 0040 2DB1     		cbz	r5, .L50
 529:Drivers/STM32F1xx_HAL_Driver/Src/stm32f1xx_hal_sram.c ****     }
 804              		.loc 1 529 7 is_stmt 1 view .LVU246
 529:Drivers/STM32F1xx_HAL_Driver/Src/stm32f1xx_hal_sram.c ****     }
 805              		.loc 1 529 35 is_stmt 0 view .LVU247
 806 0042 1288     		ldrh	r2, [r2]
 807              	.LVL75:
 529:Drivers/STM32F1xx_HAL_Driver/Src/stm32f1xx_hal_sram.c ****     }
 808              		.loc 1 529 65 view .LVU248
 809 0044 0B68     		ldr	r3, [r1]
 810              	.LVL76:
 529:Drivers/STM32F1xx_HAL_Driver/Src/stm32f1xx_hal_sram.c ****     }
 811              		.loc 1 529 80 view .LVU249
 812 0046 1B0C     		lsrs	r3, r3, #16
 813 0048 1B04     		lsls	r3, r3, #16
ARM GAS  /tmp/ccxFNFiG.s 			page 38


 529:Drivers/STM32F1xx_HAL_Driver/Src/stm32f1xx_hal_sram.c ****     }
 814              		.loc 1 529 61 view .LVU250
 815 004a 1343     		orrs	r3, r3, r2
 529:Drivers/STM32F1xx_HAL_Driver/Src/stm32f1xx_hal_sram.c ****     }
 816              		.loc 1 529 21 view .LVU251
 817 004c 0B60     		str	r3, [r1]
 818              	.L50:
 533:Drivers/STM32F1xx_HAL_Driver/Src/stm32f1xx_hal_sram.c **** 
 819              		.loc 1 533 5 is_stmt 1 view .LVU252
 533:Drivers/STM32F1xx_HAL_Driver/Src/stm32f1xx_hal_sram.c **** 
 820              		.loc 1 533 18 is_stmt 0 view .LVU253
 821 004e 0123     		movs	r3, #1
 822 0050 80F84130 		strb	r3, [r0, #65]
 536:Drivers/STM32F1xx_HAL_Driver/Src/stm32f1xx_hal_sram.c ****   }
 823              		.loc 1 536 5 is_stmt 1 view .LVU254
 536:Drivers/STM32F1xx_HAL_Driver/Src/stm32f1xx_hal_sram.c ****   }
 824              		.loc 1 536 5 view .LVU255
 825 0054 0023     		movs	r3, #0
 826 0056 80F84030 		strb	r3, [r0, #64]
 536:Drivers/STM32F1xx_HAL_Driver/Src/stm32f1xx_hal_sram.c ****   }
 827              		.loc 1 536 5 view .LVU256
 543:Drivers/STM32F1xx_HAL_Driver/Src/stm32f1xx_hal_sram.c **** }
 828              		.loc 1 543 3 view .LVU257
 543:Drivers/STM32F1xx_HAL_Driver/Src/stm32f1xx_hal_sram.c **** }
 829              		.loc 1 543 10 is_stmt 0 view .LVU258
 830 005a 1846     		mov	r0, r3
 831              	.LVL77:
 543:Drivers/STM32F1xx_HAL_Driver/Src/stm32f1xx_hal_sram.c **** }
 832              		.loc 1 543 10 view .LVU259
 833 005c 00E0     		b	.L47
 834              	.LVL78:
 835              	.L51:
 540:Drivers/STM32F1xx_HAL_Driver/Src/stm32f1xx_hal_sram.c ****   }
 836              		.loc 1 540 12 view .LVU260
 837 005e 0120     		movs	r0, #1
 838              	.LVL79:
 839              	.L47:
 544:Drivers/STM32F1xx_HAL_Driver/Src/stm32f1xx_hal_sram.c **** 
 840              		.loc 1 544 1 view .LVU261
 841 0060 30BC     		pop	{r4, r5}
 842              	.LCFI10:
 843              		.cfi_remember_state
 844              		.cfi_restore 5
 845              		.cfi_restore 4
 846              		.cfi_def_cfa_offset 0
 847 0062 7047     		bx	lr
 848              	.LVL80:
 849              	.L52:
 850              	.LCFI11:
 851              		.cfi_restore_state
 508:Drivers/STM32F1xx_HAL_Driver/Src/stm32f1xx_hal_sram.c **** 
 852              		.loc 1 508 5 view .LVU262
 853 0064 0220     		movs	r0, #2
 854              	.LVL81:
 508:Drivers/STM32F1xx_HAL_Driver/Src/stm32f1xx_hal_sram.c **** 
 855              		.loc 1 508 5 view .LVU263
 856 0066 FBE7     		b	.L47
ARM GAS  /tmp/ccxFNFiG.s 			page 39


 857              		.cfi_endproc
 858              	.LFE74:
 860              		.section	.text.HAL_SRAM_Read_32b,"ax",%progbits
 861              		.align	1
 862              		.global	HAL_SRAM_Read_32b
 863              		.syntax unified
 864              		.thumb
 865              		.thumb_func
 867              	HAL_SRAM_Read_32b:
 868              	.LVL82:
 869              	.LFB75:
 557:Drivers/STM32F1xx_HAL_Driver/Src/stm32f1xx_hal_sram.c ****   uint32_t size;
 870              		.loc 1 557 1 is_stmt 1 view -0
 871              		.cfi_startproc
 872              		@ args = 0, pretend = 0, frame = 0
 873              		@ frame_needed = 0, uses_anonymous_args = 0
 874              		@ link register save eliminated.
 558:Drivers/STM32F1xx_HAL_Driver/Src/stm32f1xx_hal_sram.c ****   __IO uint32_t *psramaddress = pAddress;
 875              		.loc 1 558 3 view .LVU265
 559:Drivers/STM32F1xx_HAL_Driver/Src/stm32f1xx_hal_sram.c ****   uint32_t *pdestbuff = pDstBuffer;
 876              		.loc 1 559 3 view .LVU266
 560:Drivers/STM32F1xx_HAL_Driver/Src/stm32f1xx_hal_sram.c ****   HAL_SRAM_StateTypeDef state = hsram->State;
 877              		.loc 1 560 3 view .LVU267
 561:Drivers/STM32F1xx_HAL_Driver/Src/stm32f1xx_hal_sram.c **** 
 878              		.loc 1 561 3 view .LVU268
 561:Drivers/STM32F1xx_HAL_Driver/Src/stm32f1xx_hal_sram.c **** 
 879              		.loc 1 561 25 is_stmt 0 view .LVU269
 880 0000 90F841C0 		ldrb	ip, [r0, #65]	@ zero_extendqisi2
 881 0004 5FFA8CFC 		uxtb	ip, ip
 882              	.LVL83:
 564:Drivers/STM32F1xx_HAL_Driver/Src/stm32f1xx_hal_sram.c ****   {
 883              		.loc 1 564 3 is_stmt 1 view .LVU270
 564:Drivers/STM32F1xx_HAL_Driver/Src/stm32f1xx_hal_sram.c ****   {
 884              		.loc 1 564 6 is_stmt 0 view .LVU271
 885 0008 BCF1010F 		cmp	ip, #1
 886 000c 02D0     		beq	.L55
 564:Drivers/STM32F1xx_HAL_Driver/Src/stm32f1xx_hal_sram.c ****   {
 887              		.loc 1 564 39 discriminator 1 view .LVU272
 888 000e BCF1040F 		cmp	ip, #4
 889 0012 19D1     		bne	.L59
 890              	.L55:
 557:Drivers/STM32F1xx_HAL_Driver/Src/stm32f1xx_hal_sram.c ****   uint32_t size;
 891              		.loc 1 557 1 view .LVU273
 892 0014 10B4     		push	{r4}
 893              	.LCFI12:
 894              		.cfi_def_cfa_offset 4
 895              		.cfi_offset 4, -4
 567:Drivers/STM32F1xx_HAL_Driver/Src/stm32f1xx_hal_sram.c **** 
 896              		.loc 1 567 5 is_stmt 1 view .LVU274
 567:Drivers/STM32F1xx_HAL_Driver/Src/stm32f1xx_hal_sram.c **** 
 897              		.loc 1 567 5 view .LVU275
 898 0016 90F84040 		ldrb	r4, [r0, #64]	@ zero_extendqisi2
 899 001a 012C     		cmp	r4, #1
 900 001c 16D0     		beq	.L60
 567:Drivers/STM32F1xx_HAL_Driver/Src/stm32f1xx_hal_sram.c **** 
 901              		.loc 1 567 5 discriminator 2 view .LVU276
 902 001e 0124     		movs	r4, #1
ARM GAS  /tmp/ccxFNFiG.s 			page 40


 903 0020 80F84040 		strb	r4, [r0, #64]
 567:Drivers/STM32F1xx_HAL_Driver/Src/stm32f1xx_hal_sram.c **** 
 904              		.loc 1 567 5 discriminator 2 view .LVU277
 570:Drivers/STM32F1xx_HAL_Driver/Src/stm32f1xx_hal_sram.c **** 
 905              		.loc 1 570 5 discriminator 2 view .LVU278
 570:Drivers/STM32F1xx_HAL_Driver/Src/stm32f1xx_hal_sram.c **** 
 906              		.loc 1 570 18 is_stmt 0 discriminator 2 view .LVU279
 907 0024 0224     		movs	r4, #2
 908 0026 80F84140 		strb	r4, [r0, #65]
 573:Drivers/STM32F1xx_HAL_Driver/Src/stm32f1xx_hal_sram.c ****     {
 909              		.loc 1 573 5 is_stmt 1 discriminator 2 view .LVU280
 910              	.LVL84:
 573:Drivers/STM32F1xx_HAL_Driver/Src/stm32f1xx_hal_sram.c ****     {
 911              		.loc 1 573 5 is_stmt 0 discriminator 2 view .LVU281
 912 002a 04E0     		b	.L57
 913              	.LVL85:
 914              	.L58:
 575:Drivers/STM32F1xx_HAL_Driver/Src/stm32f1xx_hal_sram.c ****       pdestbuff++;
 915              		.loc 1 575 7 is_stmt 1 discriminator 3 view .LVU282
 575:Drivers/STM32F1xx_HAL_Driver/Src/stm32f1xx_hal_sram.c ****       pdestbuff++;
 916              		.loc 1 575 20 is_stmt 0 discriminator 3 view .LVU283
 917 002c 51F8044B 		ldr	r4, [r1], #4
 918              	.LVL86:
 575:Drivers/STM32F1xx_HAL_Driver/Src/stm32f1xx_hal_sram.c ****       pdestbuff++;
 919              		.loc 1 575 18 discriminator 3 view .LVU284
 920 0030 42F8044B 		str	r4, [r2], #4
 921              	.LVL87:
 576:Drivers/STM32F1xx_HAL_Driver/Src/stm32f1xx_hal_sram.c ****       psramaddress++;
 922              		.loc 1 576 7 is_stmt 1 discriminator 3 view .LVU285
 577:Drivers/STM32F1xx_HAL_Driver/Src/stm32f1xx_hal_sram.c ****     }
 923              		.loc 1 577 7 discriminator 3 view .LVU286
 573:Drivers/STM32F1xx_HAL_Driver/Src/stm32f1xx_hal_sram.c ****     {
 924              		.loc 1 573 41 discriminator 3 view .LVU287
 573:Drivers/STM32F1xx_HAL_Driver/Src/stm32f1xx_hal_sram.c ****     {
 925              		.loc 1 573 45 is_stmt 0 discriminator 3 view .LVU288
 926 0034 013B     		subs	r3, r3, #1
 927              	.LVL88:
 928              	.L57:
 573:Drivers/STM32F1xx_HAL_Driver/Src/stm32f1xx_hal_sram.c ****     {
 929              		.loc 1 573 29 is_stmt 1 discriminator 1 view .LVU289
 573:Drivers/STM32F1xx_HAL_Driver/Src/stm32f1xx_hal_sram.c ****     {
 930              		.loc 1 573 5 is_stmt 0 discriminator 1 view .LVU290
 931 0036 002B     		cmp	r3, #0
 932 0038 F8D1     		bne	.L58
 581:Drivers/STM32F1xx_HAL_Driver/Src/stm32f1xx_hal_sram.c **** 
 933              		.loc 1 581 5 is_stmt 1 view .LVU291
 581:Drivers/STM32F1xx_HAL_Driver/Src/stm32f1xx_hal_sram.c **** 
 934              		.loc 1 581 18 is_stmt 0 view .LVU292
 935 003a 80F841C0 		strb	ip, [r0, #65]
 584:Drivers/STM32F1xx_HAL_Driver/Src/stm32f1xx_hal_sram.c ****   }
 936              		.loc 1 584 5 is_stmt 1 view .LVU293
 584:Drivers/STM32F1xx_HAL_Driver/Src/stm32f1xx_hal_sram.c ****   }
 937              		.loc 1 584 5 view .LVU294
 938 003e 80F84030 		strb	r3, [r0, #64]
 584:Drivers/STM32F1xx_HAL_Driver/Src/stm32f1xx_hal_sram.c ****   }
 939              		.loc 1 584 5 view .LVU295
 591:Drivers/STM32F1xx_HAL_Driver/Src/stm32f1xx_hal_sram.c **** }
ARM GAS  /tmp/ccxFNFiG.s 			page 41


 940              		.loc 1 591 3 view .LVU296
 591:Drivers/STM32F1xx_HAL_Driver/Src/stm32f1xx_hal_sram.c **** }
 941              		.loc 1 591 10 is_stmt 0 view .LVU297
 942 0042 1846     		mov	r0, r3
 943              	.LVL89:
 944              	.L56:
 592:Drivers/STM32F1xx_HAL_Driver/Src/stm32f1xx_hal_sram.c **** 
 945              		.loc 1 592 1 view .LVU298
 946 0044 10BC     		pop	{r4}
 947              	.LCFI13:
 948              		.cfi_restore 4
 949              		.cfi_def_cfa_offset 0
 950 0046 7047     		bx	lr
 951              	.LVL90:
 952              	.L59:
 588:Drivers/STM32F1xx_HAL_Driver/Src/stm32f1xx_hal_sram.c ****   }
 953              		.loc 1 588 12 view .LVU299
 954 0048 0120     		movs	r0, #1
 955              	.LVL91:
 592:Drivers/STM32F1xx_HAL_Driver/Src/stm32f1xx_hal_sram.c **** 
 956              		.loc 1 592 1 view .LVU300
 957 004a 7047     		bx	lr
 958              	.LVL92:
 959              	.L60:
 960              	.LCFI14:
 961              		.cfi_def_cfa_offset 4
 962              		.cfi_offset 4, -4
 567:Drivers/STM32F1xx_HAL_Driver/Src/stm32f1xx_hal_sram.c **** 
 963              		.loc 1 567 5 view .LVU301
 964 004c 0220     		movs	r0, #2
 965              	.LVL93:
 567:Drivers/STM32F1xx_HAL_Driver/Src/stm32f1xx_hal_sram.c **** 
 966              		.loc 1 567 5 view .LVU302
 967 004e F9E7     		b	.L56
 968              		.cfi_endproc
 969              	.LFE75:
 971              		.section	.text.HAL_SRAM_Write_32b,"ax",%progbits
 972              		.align	1
 973              		.global	HAL_SRAM_Write_32b
 974              		.syntax unified
 975              		.thumb
 976              		.thumb_func
 978              	HAL_SRAM_Write_32b:
 979              	.LVL94:
 980              	.LFB76:
 605:Drivers/STM32F1xx_HAL_Driver/Src/stm32f1xx_hal_sram.c ****   uint32_t size;
 981              		.loc 1 605 1 is_stmt 1 view -0
 982              		.cfi_startproc
 983              		@ args = 0, pretend = 0, frame = 0
 984              		@ frame_needed = 0, uses_anonymous_args = 0
 985              		@ link register save eliminated.
 605:Drivers/STM32F1xx_HAL_Driver/Src/stm32f1xx_hal_sram.c ****   uint32_t size;
 986              		.loc 1 605 1 is_stmt 0 view .LVU304
 987 0000 10B4     		push	{r4}
 988              	.LCFI15:
 989              		.cfi_def_cfa_offset 4
 990              		.cfi_offset 4, -4
ARM GAS  /tmp/ccxFNFiG.s 			page 42


 606:Drivers/STM32F1xx_HAL_Driver/Src/stm32f1xx_hal_sram.c ****   __IO uint32_t *psramaddress = pAddress;
 991              		.loc 1 606 3 is_stmt 1 view .LVU305
 607:Drivers/STM32F1xx_HAL_Driver/Src/stm32f1xx_hal_sram.c ****   uint32_t *psrcbuff = pSrcBuffer;
 992              		.loc 1 607 3 view .LVU306
 993              	.LVL95:
 608:Drivers/STM32F1xx_HAL_Driver/Src/stm32f1xx_hal_sram.c **** 
 994              		.loc 1 608 3 view .LVU307
 611:Drivers/STM32F1xx_HAL_Driver/Src/stm32f1xx_hal_sram.c ****   {
 995              		.loc 1 611 3 view .LVU308
 611:Drivers/STM32F1xx_HAL_Driver/Src/stm32f1xx_hal_sram.c ****   {
 996              		.loc 1 611 12 is_stmt 0 view .LVU309
 997 0002 90F84140 		ldrb	r4, [r0, #65]	@ zero_extendqisi2
 998 0006 E4B2     		uxtb	r4, r4
 611:Drivers/STM32F1xx_HAL_Driver/Src/stm32f1xx_hal_sram.c ****   {
 999              		.loc 1 611 6 view .LVU310
 1000 0008 012C     		cmp	r4, #1
 1001 000a 19D1     		bne	.L68
 614:Drivers/STM32F1xx_HAL_Driver/Src/stm32f1xx_hal_sram.c **** 
 1002              		.loc 1 614 5 is_stmt 1 view .LVU311
 614:Drivers/STM32F1xx_HAL_Driver/Src/stm32f1xx_hal_sram.c **** 
 1003              		.loc 1 614 5 view .LVU312
 1004 000c 90F84040 		ldrb	r4, [r0, #64]	@ zero_extendqisi2
 1005 0010 012C     		cmp	r4, #1
 1006 0012 18D0     		beq	.L69
 614:Drivers/STM32F1xx_HAL_Driver/Src/stm32f1xx_hal_sram.c **** 
 1007              		.loc 1 614 5 discriminator 2 view .LVU313
 1008 0014 0124     		movs	r4, #1
 1009 0016 80F84040 		strb	r4, [r0, #64]
 614:Drivers/STM32F1xx_HAL_Driver/Src/stm32f1xx_hal_sram.c **** 
 1010              		.loc 1 614 5 discriminator 2 view .LVU314
 617:Drivers/STM32F1xx_HAL_Driver/Src/stm32f1xx_hal_sram.c **** 
 1011              		.loc 1 617 5 discriminator 2 view .LVU315
 617:Drivers/STM32F1xx_HAL_Driver/Src/stm32f1xx_hal_sram.c **** 
 1012              		.loc 1 617 18 is_stmt 0 discriminator 2 view .LVU316
 1013 001a 0224     		movs	r4, #2
 1014 001c 80F84140 		strb	r4, [r0, #65]
 620:Drivers/STM32F1xx_HAL_Driver/Src/stm32f1xx_hal_sram.c ****     {
 1015              		.loc 1 620 5 is_stmt 1 discriminator 2 view .LVU317
 1016              	.LVL96:
 620:Drivers/STM32F1xx_HAL_Driver/Src/stm32f1xx_hal_sram.c ****     {
 1017              		.loc 1 620 5 is_stmt 0 discriminator 2 view .LVU318
 1018 0020 04E0     		b	.L66
 1019              	.LVL97:
 1020              	.L67:
 622:Drivers/STM32F1xx_HAL_Driver/Src/stm32f1xx_hal_sram.c ****       psrcbuff++;
 1021              		.loc 1 622 7 is_stmt 1 discriminator 3 view .LVU319
 622:Drivers/STM32F1xx_HAL_Driver/Src/stm32f1xx_hal_sram.c ****       psrcbuff++;
 1022              		.loc 1 622 23 is_stmt 0 discriminator 3 view .LVU320
 1023 0022 52F8044B 		ldr	r4, [r2], #4
 1024              	.LVL98:
 622:Drivers/STM32F1xx_HAL_Driver/Src/stm32f1xx_hal_sram.c ****       psrcbuff++;
 1025              		.loc 1 622 21 discriminator 3 view .LVU321
 1026 0026 41F8044B 		str	r4, [r1], #4
 1027              	.LVL99:
 623:Drivers/STM32F1xx_HAL_Driver/Src/stm32f1xx_hal_sram.c ****       psramaddress++;
 1028              		.loc 1 623 7 is_stmt 1 discriminator 3 view .LVU322
 624:Drivers/STM32F1xx_HAL_Driver/Src/stm32f1xx_hal_sram.c ****     }
ARM GAS  /tmp/ccxFNFiG.s 			page 43


 1029              		.loc 1 624 7 discriminator 3 view .LVU323
 620:Drivers/STM32F1xx_HAL_Driver/Src/stm32f1xx_hal_sram.c ****     {
 1030              		.loc 1 620 41 discriminator 3 view .LVU324
 620:Drivers/STM32F1xx_HAL_Driver/Src/stm32f1xx_hal_sram.c ****     {
 1031              		.loc 1 620 45 is_stmt 0 discriminator 3 view .LVU325
 1032 002a 013B     		subs	r3, r3, #1
 1033              	.LVL100:
 1034              	.L66:
 620:Drivers/STM32F1xx_HAL_Driver/Src/stm32f1xx_hal_sram.c ****     {
 1035              		.loc 1 620 29 is_stmt 1 discriminator 1 view .LVU326
 620:Drivers/STM32F1xx_HAL_Driver/Src/stm32f1xx_hal_sram.c ****     {
 1036              		.loc 1 620 5 is_stmt 0 discriminator 1 view .LVU327
 1037 002c 002B     		cmp	r3, #0
 1038 002e F8D1     		bne	.L67
 628:Drivers/STM32F1xx_HAL_Driver/Src/stm32f1xx_hal_sram.c **** 
 1039              		.loc 1 628 5 is_stmt 1 view .LVU328
 628:Drivers/STM32F1xx_HAL_Driver/Src/stm32f1xx_hal_sram.c **** 
 1040              		.loc 1 628 18 is_stmt 0 view .LVU329
 1041 0030 0123     		movs	r3, #1
 1042              	.LVL101:
 628:Drivers/STM32F1xx_HAL_Driver/Src/stm32f1xx_hal_sram.c **** 
 1043              		.loc 1 628 18 view .LVU330
 1044 0032 80F84130 		strb	r3, [r0, #65]
 631:Drivers/STM32F1xx_HAL_Driver/Src/stm32f1xx_hal_sram.c ****   }
 1045              		.loc 1 631 5 is_stmt 1 view .LVU331
 631:Drivers/STM32F1xx_HAL_Driver/Src/stm32f1xx_hal_sram.c ****   }
 1046              		.loc 1 631 5 view .LVU332
 1047 0036 0023     		movs	r3, #0
 1048 0038 80F84030 		strb	r3, [r0, #64]
 631:Drivers/STM32F1xx_HAL_Driver/Src/stm32f1xx_hal_sram.c ****   }
 1049              		.loc 1 631 5 view .LVU333
 638:Drivers/STM32F1xx_HAL_Driver/Src/stm32f1xx_hal_sram.c **** }
 1050              		.loc 1 638 3 view .LVU334
 638:Drivers/STM32F1xx_HAL_Driver/Src/stm32f1xx_hal_sram.c **** }
 1051              		.loc 1 638 10 is_stmt 0 view .LVU335
 1052 003c 1846     		mov	r0, r3
 1053              	.LVL102:
 638:Drivers/STM32F1xx_HAL_Driver/Src/stm32f1xx_hal_sram.c **** }
 1054              		.loc 1 638 10 view .LVU336
 1055 003e 00E0     		b	.L65
 1056              	.LVL103:
 1057              	.L68:
 635:Drivers/STM32F1xx_HAL_Driver/Src/stm32f1xx_hal_sram.c ****   }
 1058              		.loc 1 635 12 view .LVU337
 1059 0040 0120     		movs	r0, #1
 1060              	.LVL104:
 1061              	.L65:
 639:Drivers/STM32F1xx_HAL_Driver/Src/stm32f1xx_hal_sram.c **** 
 1062              		.loc 1 639 1 view .LVU338
 1063 0042 10BC     		pop	{r4}
 1064              	.LCFI16:
 1065              		.cfi_remember_state
 1066              		.cfi_restore 4
 1067              		.cfi_def_cfa_offset 0
 1068 0044 7047     		bx	lr
 1069              	.LVL105:
 1070              	.L69:
ARM GAS  /tmp/ccxFNFiG.s 			page 44


 1071              	.LCFI17:
 1072              		.cfi_restore_state
 614:Drivers/STM32F1xx_HAL_Driver/Src/stm32f1xx_hal_sram.c **** 
 1073              		.loc 1 614 5 view .LVU339
 1074 0046 0220     		movs	r0, #2
 1075              	.LVL106:
 614:Drivers/STM32F1xx_HAL_Driver/Src/stm32f1xx_hal_sram.c **** 
 1076              		.loc 1 614 5 view .LVU340
 1077 0048 FBE7     		b	.L65
 1078              		.cfi_endproc
 1079              	.LFE76:
 1081              		.section	.text.HAL_SRAM_Read_DMA,"ax",%progbits
 1082              		.align	1
 1083              		.global	HAL_SRAM_Read_DMA
 1084              		.syntax unified
 1085              		.thumb
 1086              		.thumb_func
 1088              	HAL_SRAM_Read_DMA:
 1089              	.LVL107:
 1090              	.LFB77:
 652:Drivers/STM32F1xx_HAL_Driver/Src/stm32f1xx_hal_sram.c ****   HAL_StatusTypeDef status;
 1091              		.loc 1 652 1 is_stmt 1 view -0
 1092              		.cfi_startproc
 1093              		@ args = 0, pretend = 0, frame = 0
 1094              		@ frame_needed = 0, uses_anonymous_args = 0
 652:Drivers/STM32F1xx_HAL_Driver/Src/stm32f1xx_hal_sram.c ****   HAL_StatusTypeDef status;
 1095              		.loc 1 652 1 is_stmt 0 view .LVU342
 1096 0000 38B5     		push	{r3, r4, r5, lr}
 1097              	.LCFI18:
 1098              		.cfi_def_cfa_offset 16
 1099              		.cfi_offset 3, -16
 1100              		.cfi_offset 4, -12
 1101              		.cfi_offset 5, -8
 1102              		.cfi_offset 14, -4
 1103 0002 0446     		mov	r4, r0
 653:Drivers/STM32F1xx_HAL_Driver/Src/stm32f1xx_hal_sram.c ****   HAL_SRAM_StateTypeDef state = hsram->State;
 1104              		.loc 1 653 3 is_stmt 1 view .LVU343
 654:Drivers/STM32F1xx_HAL_Driver/Src/stm32f1xx_hal_sram.c **** 
 1105              		.loc 1 654 3 view .LVU344
 654:Drivers/STM32F1xx_HAL_Driver/Src/stm32f1xx_hal_sram.c **** 
 1106              		.loc 1 654 25 is_stmt 0 view .LVU345
 1107 0004 90F84100 		ldrb	r0, [r0, #65]	@ zero_extendqisi2
 1108              	.LVL108:
 654:Drivers/STM32F1xx_HAL_Driver/Src/stm32f1xx_hal_sram.c **** 
 1109              		.loc 1 654 25 view .LVU346
 1110 0008 C0B2     		uxtb	r0, r0
 1111              	.LVL109:
 657:Drivers/STM32F1xx_HAL_Driver/Src/stm32f1xx_hal_sram.c ****   {
 1112              		.loc 1 657 3 is_stmt 1 view .LVU347
 657:Drivers/STM32F1xx_HAL_Driver/Src/stm32f1xx_hal_sram.c ****   {
 1113              		.loc 1 657 6 is_stmt 0 view .LVU348
 1114 000a 0128     		cmp	r0, #1
 1115 000c 03D0     		beq	.L72
 657:Drivers/STM32F1xx_HAL_Driver/Src/stm32f1xx_hal_sram.c ****   {
 1116              		.loc 1 657 39 discriminator 1 view .LVU349
 1117 000e 0428     		cmp	r0, #4
 1118 0010 01D0     		beq	.L72
ARM GAS  /tmp/ccxFNFiG.s 			page 45


 684:Drivers/STM32F1xx_HAL_Driver/Src/stm32f1xx_hal_sram.c ****   }
 1119              		.loc 1 684 12 view .LVU350
 1120 0012 0120     		movs	r0, #1
 1121              	.LVL110:
 684:Drivers/STM32F1xx_HAL_Driver/Src/stm32f1xx_hal_sram.c ****   }
 1122              		.loc 1 684 12 view .LVU351
 1123 0014 18E0     		b	.L73
 1124              	.LVL111:
 1125              	.L72:
 660:Drivers/STM32F1xx_HAL_Driver/Src/stm32f1xx_hal_sram.c **** 
 1126              		.loc 1 660 5 is_stmt 1 view .LVU352
 660:Drivers/STM32F1xx_HAL_Driver/Src/stm32f1xx_hal_sram.c **** 
 1127              		.loc 1 660 5 view .LVU353
 1128 0016 94F840C0 		ldrb	ip, [r4, #64]	@ zero_extendqisi2
 1129 001a BCF1010F 		cmp	ip, #1
 1130 001e 18D0     		beq	.L77
 660:Drivers/STM32F1xx_HAL_Driver/Src/stm32f1xx_hal_sram.c **** 
 1131              		.loc 1 660 5 discriminator 2 view .LVU354
 1132 0020 0125     		movs	r5, #1
 1133 0022 84F84050 		strb	r5, [r4, #64]
 660:Drivers/STM32F1xx_HAL_Driver/Src/stm32f1xx_hal_sram.c **** 
 1134              		.loc 1 660 5 discriminator 2 view .LVU355
 663:Drivers/STM32F1xx_HAL_Driver/Src/stm32f1xx_hal_sram.c **** 
 1135              		.loc 1 663 5 discriminator 2 view .LVU356
 663:Drivers/STM32F1xx_HAL_Driver/Src/stm32f1xx_hal_sram.c **** 
 1136              		.loc 1 663 18 is_stmt 0 discriminator 2 view .LVU357
 1137 0026 0225     		movs	r5, #2
 1138 0028 84F84150 		strb	r5, [r4, #65]
 666:Drivers/STM32F1xx_HAL_Driver/Src/stm32f1xx_hal_sram.c ****     {
 1139              		.loc 1 666 5 is_stmt 1 discriminator 2 view .LVU358
 666:Drivers/STM32F1xx_HAL_Driver/Src/stm32f1xx_hal_sram.c ****     {
 1140              		.loc 1 666 8 is_stmt 0 discriminator 2 view .LVU359
 1141 002c 0128     		cmp	r0, #1
 1142 002e 0CD0     		beq	.L79
 672:Drivers/STM32F1xx_HAL_Driver/Src/stm32f1xx_hal_sram.c ****     }
 1143              		.loc 1 672 7 is_stmt 1 view .LVU360
 672:Drivers/STM32F1xx_HAL_Driver/Src/stm32f1xx_hal_sram.c ****     }
 1144              		.loc 1 672 12 is_stmt 0 view .LVU361
 1145 0030 606C     		ldr	r0, [r4, #68]
 1146              	.LVL112:
 672:Drivers/STM32F1xx_HAL_Driver/Src/stm32f1xx_hal_sram.c ****     }
 1147              		.loc 1 672 37 view .LVU362
 1148 0032 094D     		ldr	r5, .L80
 1149 0034 8562     		str	r5, [r0, #40]
 1150              	.L75:
 674:Drivers/STM32F1xx_HAL_Driver/Src/stm32f1xx_hal_sram.c **** 
 1151              		.loc 1 674 5 is_stmt 1 view .LVU363
 674:Drivers/STM32F1xx_HAL_Driver/Src/stm32f1xx_hal_sram.c **** 
 1152              		.loc 1 674 10 is_stmt 0 view .LVU364
 1153 0036 606C     		ldr	r0, [r4, #68]
 674:Drivers/STM32F1xx_HAL_Driver/Src/stm32f1xx_hal_sram.c **** 
 1154              		.loc 1 674 36 view .LVU365
 1155 0038 084D     		ldr	r5, .L80+4
 1156 003a 0563     		str	r5, [r0, #48]
 677:Drivers/STM32F1xx_HAL_Driver/Src/stm32f1xx_hal_sram.c **** 
 1157              		.loc 1 677 5 is_stmt 1 view .LVU366
 677:Drivers/STM32F1xx_HAL_Driver/Src/stm32f1xx_hal_sram.c **** 
ARM GAS  /tmp/ccxFNFiG.s 			page 46


 1158              		.loc 1 677 14 is_stmt 0 view .LVU367
 1159 003c 606C     		ldr	r0, [r4, #68]
 1160 003e FFF7FEFF 		bl	HAL_DMA_Start_IT
 1161              	.LVL113:
 680:Drivers/STM32F1xx_HAL_Driver/Src/stm32f1xx_hal_sram.c ****   }
 1162              		.loc 1 680 5 is_stmt 1 view .LVU368
 680:Drivers/STM32F1xx_HAL_Driver/Src/stm32f1xx_hal_sram.c ****   }
 1163              		.loc 1 680 5 view .LVU369
 1164 0042 0023     		movs	r3, #0
 1165 0044 84F84030 		strb	r3, [r4, #64]
 680:Drivers/STM32F1xx_HAL_Driver/Src/stm32f1xx_hal_sram.c ****   }
 1166              		.loc 1 680 5 view .LVU370
 1167              	.LVL114:
 1168              	.L73:
 688:Drivers/STM32F1xx_HAL_Driver/Src/stm32f1xx_hal_sram.c **** 
 1169              		.loc 1 688 1 is_stmt 0 view .LVU371
 1170 0048 38BD     		pop	{r3, r4, r5, pc}
 1171              	.LVL115:
 1172              	.L79:
 668:Drivers/STM32F1xx_HAL_Driver/Src/stm32f1xx_hal_sram.c ****     }
 1173              		.loc 1 668 7 is_stmt 1 view .LVU372
 668:Drivers/STM32F1xx_HAL_Driver/Src/stm32f1xx_hal_sram.c ****     }
 1174              		.loc 1 668 12 is_stmt 0 view .LVU373
 1175 004a 606C     		ldr	r0, [r4, #68]
 1176              	.LVL116:
 668:Drivers/STM32F1xx_HAL_Driver/Src/stm32f1xx_hal_sram.c ****     }
 1177              		.loc 1 668 37 view .LVU374
 1178 004c 044D     		ldr	r5, .L80+8
 1179 004e 8562     		str	r5, [r0, #40]
 1180 0050 F1E7     		b	.L75
 1181              	.LVL117:
 1182              	.L77:
 660:Drivers/STM32F1xx_HAL_Driver/Src/stm32f1xx_hal_sram.c **** 
 1183              		.loc 1 660 5 view .LVU375
 1184 0052 0220     		movs	r0, #2
 1185              	.LVL118:
 660:Drivers/STM32F1xx_HAL_Driver/Src/stm32f1xx_hal_sram.c **** 
 1186              		.loc 1 660 5 view .LVU376
 1187 0054 F8E7     		b	.L73
 1188              	.L81:
 1189 0056 00BF     		.align	2
 1190              	.L80:
 1191 0058 00000000 		.word	SRAM_DMACpltProt
 1192 005c 00000000 		.word	SRAM_DMAError
 1193 0060 00000000 		.word	SRAM_DMACplt
 1194              		.cfi_endproc
 1195              	.LFE77:
 1197              		.section	.text.HAL_SRAM_Write_DMA,"ax",%progbits
 1198              		.align	1
 1199              		.global	HAL_SRAM_Write_DMA
 1200              		.syntax unified
 1201              		.thumb
 1202              		.thumb_func
 1204              	HAL_SRAM_Write_DMA:
 1205              	.LVL119:
 1206              	.LFB78:
 701:Drivers/STM32F1xx_HAL_Driver/Src/stm32f1xx_hal_sram.c ****   HAL_StatusTypeDef status;
ARM GAS  /tmp/ccxFNFiG.s 			page 47


 1207              		.loc 1 701 1 is_stmt 1 view -0
 1208              		.cfi_startproc
 1209              		@ args = 0, pretend = 0, frame = 0
 1210              		@ frame_needed = 0, uses_anonymous_args = 0
 701:Drivers/STM32F1xx_HAL_Driver/Src/stm32f1xx_hal_sram.c ****   HAL_StatusTypeDef status;
 1211              		.loc 1 701 1 is_stmt 0 view .LVU378
 1212 0000 10B5     		push	{r4, lr}
 1213              	.LCFI19:
 1214              		.cfi_def_cfa_offset 8
 1215              		.cfi_offset 4, -8
 1216              		.cfi_offset 14, -4
 1217 0002 0446     		mov	r4, r0
 702:Drivers/STM32F1xx_HAL_Driver/Src/stm32f1xx_hal_sram.c **** 
 1218              		.loc 1 702 3 is_stmt 1 view .LVU379
 705:Drivers/STM32F1xx_HAL_Driver/Src/stm32f1xx_hal_sram.c ****   {
 1219              		.loc 1 705 3 view .LVU380
 705:Drivers/STM32F1xx_HAL_Driver/Src/stm32f1xx_hal_sram.c ****   {
 1220              		.loc 1 705 12 is_stmt 0 view .LVU381
 1221 0004 90F84100 		ldrb	r0, [r0, #65]	@ zero_extendqisi2
 1222              	.LVL120:
 705:Drivers/STM32F1xx_HAL_Driver/Src/stm32f1xx_hal_sram.c ****   {
 1223              		.loc 1 705 12 view .LVU382
 1224 0008 C0B2     		uxtb	r0, r0
 705:Drivers/STM32F1xx_HAL_Driver/Src/stm32f1xx_hal_sram.c ****   {
 1225              		.loc 1 705 6 view .LVU383
 1226 000a 0128     		cmp	r0, #1
 1227 000c 01D0     		beq	.L87
 725:Drivers/STM32F1xx_HAL_Driver/Src/stm32f1xx_hal_sram.c ****   }
 1228              		.loc 1 725 12 view .LVU384
 1229 000e 0120     		movs	r0, #1
 1230              	.LVL121:
 1231              	.L83:
 729:Drivers/STM32F1xx_HAL_Driver/Src/stm32f1xx_hal_sram.c **** 
 1232              		.loc 1 729 1 view .LVU385
 1233 0010 10BD     		pop	{r4, pc}
 1234              	.LVL122:
 1235              	.L87:
 729:Drivers/STM32F1xx_HAL_Driver/Src/stm32f1xx_hal_sram.c **** 
 1236              		.loc 1 729 1 view .LVU386
 1237 0012 8C46     		mov	ip, r1
 1238 0014 1146     		mov	r1, r2
 1239              	.LVL123:
 708:Drivers/STM32F1xx_HAL_Driver/Src/stm32f1xx_hal_sram.c **** 
 1240              		.loc 1 708 5 is_stmt 1 view .LVU387
 708:Drivers/STM32F1xx_HAL_Driver/Src/stm32f1xx_hal_sram.c **** 
 1241              		.loc 1 708 5 view .LVU388
 1242 0016 94F84020 		ldrb	r2, [r4, #64]	@ zero_extendqisi2
 1243              	.LVL124:
 708:Drivers/STM32F1xx_HAL_Driver/Src/stm32f1xx_hal_sram.c **** 
 1244              		.loc 1 708 5 is_stmt 0 view .LVU389
 1245 001a 012A     		cmp	r2, #1
 1246 001c 13D0     		beq	.L85
 708:Drivers/STM32F1xx_HAL_Driver/Src/stm32f1xx_hal_sram.c **** 
 1247              		.loc 1 708 5 is_stmt 1 discriminator 2 view .LVU390
 1248 001e 0122     		movs	r2, #1
 1249 0020 84F84020 		strb	r2, [r4, #64]
 708:Drivers/STM32F1xx_HAL_Driver/Src/stm32f1xx_hal_sram.c **** 
ARM GAS  /tmp/ccxFNFiG.s 			page 48


 1250              		.loc 1 708 5 discriminator 2 view .LVU391
 711:Drivers/STM32F1xx_HAL_Driver/Src/stm32f1xx_hal_sram.c **** 
 1251              		.loc 1 711 5 discriminator 2 view .LVU392
 711:Drivers/STM32F1xx_HAL_Driver/Src/stm32f1xx_hal_sram.c **** 
 1252              		.loc 1 711 18 is_stmt 0 discriminator 2 view .LVU393
 1253 0024 0222     		movs	r2, #2
 1254 0026 84F84120 		strb	r2, [r4, #65]
 714:Drivers/STM32F1xx_HAL_Driver/Src/stm32f1xx_hal_sram.c ****     hsram->hdma->XferErrorCallback = SRAM_DMAError;
 1255              		.loc 1 714 5 is_stmt 1 discriminator 2 view .LVU394
 714:Drivers/STM32F1xx_HAL_Driver/Src/stm32f1xx_hal_sram.c ****     hsram->hdma->XferErrorCallback = SRAM_DMAError;
 1256              		.loc 1 714 10 is_stmt 0 discriminator 2 view .LVU395
 1257 002a 626C     		ldr	r2, [r4, #68]
 714:Drivers/STM32F1xx_HAL_Driver/Src/stm32f1xx_hal_sram.c ****     hsram->hdma->XferErrorCallback = SRAM_DMAError;
 1258              		.loc 1 714 35 discriminator 2 view .LVU396
 1259 002c 0748     		ldr	r0, .L88
 1260 002e 9062     		str	r0, [r2, #40]
 715:Drivers/STM32F1xx_HAL_Driver/Src/stm32f1xx_hal_sram.c **** 
 1261              		.loc 1 715 5 is_stmt 1 discriminator 2 view .LVU397
 715:Drivers/STM32F1xx_HAL_Driver/Src/stm32f1xx_hal_sram.c **** 
 1262              		.loc 1 715 10 is_stmt 0 discriminator 2 view .LVU398
 1263 0030 626C     		ldr	r2, [r4, #68]
 715:Drivers/STM32F1xx_HAL_Driver/Src/stm32f1xx_hal_sram.c **** 
 1264              		.loc 1 715 36 discriminator 2 view .LVU399
 1265 0032 0748     		ldr	r0, .L88+4
 1266 0034 1063     		str	r0, [r2, #48]
 718:Drivers/STM32F1xx_HAL_Driver/Src/stm32f1xx_hal_sram.c **** 
 1267              		.loc 1 718 5 is_stmt 1 discriminator 2 view .LVU400
 718:Drivers/STM32F1xx_HAL_Driver/Src/stm32f1xx_hal_sram.c **** 
 1268              		.loc 1 718 14 is_stmt 0 discriminator 2 view .LVU401
 1269 0036 6246     		mov	r2, ip
 1270 0038 606C     		ldr	r0, [r4, #68]
 1271 003a FFF7FEFF 		bl	HAL_DMA_Start_IT
 1272              	.LVL125:
 721:Drivers/STM32F1xx_HAL_Driver/Src/stm32f1xx_hal_sram.c ****   }
 1273              		.loc 1 721 5 is_stmt 1 discriminator 2 view .LVU402
 721:Drivers/STM32F1xx_HAL_Driver/Src/stm32f1xx_hal_sram.c ****   }
 1274              		.loc 1 721 5 discriminator 2 view .LVU403
 1275 003e 0023     		movs	r3, #0
 1276 0040 84F84030 		strb	r3, [r4, #64]
 721:Drivers/STM32F1xx_HAL_Driver/Src/stm32f1xx_hal_sram.c ****   }
 1277              		.loc 1 721 5 discriminator 2 view .LVU404
 1278 0044 E4E7     		b	.L83
 1279              	.LVL126:
 1280              	.L85:
 708:Drivers/STM32F1xx_HAL_Driver/Src/stm32f1xx_hal_sram.c **** 
 1281              		.loc 1 708 5 is_stmt 0 view .LVU405
 1282 0046 0220     		movs	r0, #2
 1283 0048 E2E7     		b	.L83
 1284              	.L89:
 1285 004a 00BF     		.align	2
 1286              	.L88:
 1287 004c 00000000 		.word	SRAM_DMACplt
 1288 0050 00000000 		.word	SRAM_DMAError
 1289              		.cfi_endproc
 1290              	.LFE78:
 1292              		.section	.text.HAL_SRAM_WriteOperation_Enable,"ax",%progbits
 1293              		.align	1
ARM GAS  /tmp/ccxFNFiG.s 			page 49


 1294              		.global	HAL_SRAM_WriteOperation_Enable
 1295              		.syntax unified
 1296              		.thumb
 1297              		.thumb_func
 1299              	HAL_SRAM_WriteOperation_Enable:
 1300              	.LVL127:
 1301              	.LFB79:
 935:Drivers/STM32F1xx_HAL_Driver/Src/stm32f1xx_hal_sram.c ****   /* Check the SRAM controller state */
 1302              		.loc 1 935 1 is_stmt 1 view -0
 1303              		.cfi_startproc
 1304              		@ args = 0, pretend = 0, frame = 0
 1305              		@ frame_needed = 0, uses_anonymous_args = 0
 935:Drivers/STM32F1xx_HAL_Driver/Src/stm32f1xx_hal_sram.c ****   /* Check the SRAM controller state */
 1306              		.loc 1 935 1 is_stmt 0 view .LVU407
 1307 0000 38B5     		push	{r3, r4, r5, lr}
 1308              	.LCFI20:
 1309              		.cfi_def_cfa_offset 16
 1310              		.cfi_offset 3, -16
 1311              		.cfi_offset 4, -12
 1312              		.cfi_offset 5, -8
 1313              		.cfi_offset 14, -4
 937:Drivers/STM32F1xx_HAL_Driver/Src/stm32f1xx_hal_sram.c ****   {
 1314              		.loc 1 937 3 is_stmt 1 view .LVU408
 937:Drivers/STM32F1xx_HAL_Driver/Src/stm32f1xx_hal_sram.c ****   {
 1315              		.loc 1 937 12 is_stmt 0 view .LVU409
 1316 0002 90F84130 		ldrb	r3, [r0, #65]	@ zero_extendqisi2
 1317 0006 DBB2     		uxtb	r3, r3
 937:Drivers/STM32F1xx_HAL_Driver/Src/stm32f1xx_hal_sram.c ****   {
 1318              		.loc 1 937 6 view .LVU410
 1319 0008 042B     		cmp	r3, #4
 1320 000a 14D1     		bne	.L92
 1321 000c 0446     		mov	r4, r0
 940:Drivers/STM32F1xx_HAL_Driver/Src/stm32f1xx_hal_sram.c **** 
 1322              		.loc 1 940 5 is_stmt 1 view .LVU411
 940:Drivers/STM32F1xx_HAL_Driver/Src/stm32f1xx_hal_sram.c **** 
 1323              		.loc 1 940 5 view .LVU412
 1324 000e 90F84030 		ldrb	r3, [r0, #64]	@ zero_extendqisi2
 1325 0012 012B     		cmp	r3, #1
 1326 0014 11D0     		beq	.L93
 940:Drivers/STM32F1xx_HAL_Driver/Src/stm32f1xx_hal_sram.c **** 
 1327              		.loc 1 940 5 discriminator 2 view .LVU413
 1328 0016 0125     		movs	r5, #1
 1329 0018 80F84050 		strb	r5, [r0, #64]
 940:Drivers/STM32F1xx_HAL_Driver/Src/stm32f1xx_hal_sram.c **** 
 1330              		.loc 1 940 5 discriminator 2 view .LVU414
 943:Drivers/STM32F1xx_HAL_Driver/Src/stm32f1xx_hal_sram.c **** 
 1331              		.loc 1 943 5 discriminator 2 view .LVU415
 943:Drivers/STM32F1xx_HAL_Driver/Src/stm32f1xx_hal_sram.c **** 
 1332              		.loc 1 943 18 is_stmt 0 discriminator 2 view .LVU416
 1333 001c 0223     		movs	r3, #2
 1334 001e 80F84130 		strb	r3, [r0, #65]
 946:Drivers/STM32F1xx_HAL_Driver/Src/stm32f1xx_hal_sram.c **** 
 1335              		.loc 1 946 5 is_stmt 1 discriminator 2 view .LVU417
 946:Drivers/STM32F1xx_HAL_Driver/Src/stm32f1xx_hal_sram.c **** 
 1336              		.loc 1 946 11 is_stmt 0 discriminator 2 view .LVU418
 1337 0022 8168     		ldr	r1, [r0, #8]
 1338 0024 0068     		ldr	r0, [r0]
ARM GAS  /tmp/ccxFNFiG.s 			page 50


 1339              	.LVL128:
 946:Drivers/STM32F1xx_HAL_Driver/Src/stm32f1xx_hal_sram.c **** 
 1340              		.loc 1 946 11 discriminator 2 view .LVU419
 1341 0026 FFF7FEFF 		bl	FSMC_NORSRAM_WriteOperation_Enable
 1342              	.LVL129:
 949:Drivers/STM32F1xx_HAL_Driver/Src/stm32f1xx_hal_sram.c **** 
 1343              		.loc 1 949 5 is_stmt 1 discriminator 2 view .LVU420
 949:Drivers/STM32F1xx_HAL_Driver/Src/stm32f1xx_hal_sram.c **** 
 1344              		.loc 1 949 18 is_stmt 0 discriminator 2 view .LVU421
 1345 002a 84F84150 		strb	r5, [r4, #65]
 952:Drivers/STM32F1xx_HAL_Driver/Src/stm32f1xx_hal_sram.c ****   }
 1346              		.loc 1 952 5 is_stmt 1 discriminator 2 view .LVU422
 952:Drivers/STM32F1xx_HAL_Driver/Src/stm32f1xx_hal_sram.c ****   }
 1347              		.loc 1 952 5 discriminator 2 view .LVU423
 1348 002e 0020     		movs	r0, #0
 1349 0030 84F84000 		strb	r0, [r4, #64]
 952:Drivers/STM32F1xx_HAL_Driver/Src/stm32f1xx_hal_sram.c ****   }
 1350              		.loc 1 952 5 discriminator 2 view .LVU424
 959:Drivers/STM32F1xx_HAL_Driver/Src/stm32f1xx_hal_sram.c **** }
 1351              		.loc 1 959 3 discriminator 2 view .LVU425
 959:Drivers/STM32F1xx_HAL_Driver/Src/stm32f1xx_hal_sram.c **** }
 1352              		.loc 1 959 10 is_stmt 0 discriminator 2 view .LVU426
 1353 0034 00E0     		b	.L91
 1354              	.LVL130:
 1355              	.L92:
 956:Drivers/STM32F1xx_HAL_Driver/Src/stm32f1xx_hal_sram.c ****   }
 1356              		.loc 1 956 12 view .LVU427
 1357 0036 0120     		movs	r0, #1
 1358              	.LVL131:
 1359              	.L91:
 960:Drivers/STM32F1xx_HAL_Driver/Src/stm32f1xx_hal_sram.c **** 
 1360              		.loc 1 960 1 view .LVU428
 1361 0038 38BD     		pop	{r3, r4, r5, pc}
 1362              	.LVL132:
 1363              	.L93:
 940:Drivers/STM32F1xx_HAL_Driver/Src/stm32f1xx_hal_sram.c **** 
 1364              		.loc 1 940 5 view .LVU429
 1365 003a 0220     		movs	r0, #2
 1366              	.LVL133:
 940:Drivers/STM32F1xx_HAL_Driver/Src/stm32f1xx_hal_sram.c **** 
 1367              		.loc 1 940 5 view .LVU430
 1368 003c FCE7     		b	.L91
 1369              		.cfi_endproc
 1370              	.LFE79:
 1372              		.section	.text.HAL_SRAM_WriteOperation_Disable,"ax",%progbits
 1373              		.align	1
 1374              		.global	HAL_SRAM_WriteOperation_Disable
 1375              		.syntax unified
 1376              		.thumb
 1377              		.thumb_func
 1379              	HAL_SRAM_WriteOperation_Disable:
 1380              	.LVL134:
 1381              	.LFB80:
 969:Drivers/STM32F1xx_HAL_Driver/Src/stm32f1xx_hal_sram.c ****   /* Check the SRAM controller state */
 1382              		.loc 1 969 1 is_stmt 1 view -0
 1383              		.cfi_startproc
 1384              		@ args = 0, pretend = 0, frame = 0
ARM GAS  /tmp/ccxFNFiG.s 			page 51


 1385              		@ frame_needed = 0, uses_anonymous_args = 0
 971:Drivers/STM32F1xx_HAL_Driver/Src/stm32f1xx_hal_sram.c ****   {
 1386              		.loc 1 971 3 view .LVU432
 971:Drivers/STM32F1xx_HAL_Driver/Src/stm32f1xx_hal_sram.c ****   {
 1387              		.loc 1 971 12 is_stmt 0 view .LVU433
 1388 0000 90F84130 		ldrb	r3, [r0, #65]	@ zero_extendqisi2
 1389 0004 DBB2     		uxtb	r3, r3
 971:Drivers/STM32F1xx_HAL_Driver/Src/stm32f1xx_hal_sram.c ****   {
 1390              		.loc 1 971 6 view .LVU434
 1391 0006 012B     		cmp	r3, #1
 1392 0008 16D1     		bne	.L97
 969:Drivers/STM32F1xx_HAL_Driver/Src/stm32f1xx_hal_sram.c ****   /* Check the SRAM controller state */
 1393              		.loc 1 969 1 view .LVU435
 1394 000a 10B5     		push	{r4, lr}
 1395              	.LCFI21:
 1396              		.cfi_def_cfa_offset 8
 1397              		.cfi_offset 4, -8
 1398              		.cfi_offset 14, -4
 1399 000c 0446     		mov	r4, r0
 974:Drivers/STM32F1xx_HAL_Driver/Src/stm32f1xx_hal_sram.c **** 
 1400              		.loc 1 974 5 is_stmt 1 view .LVU436
 974:Drivers/STM32F1xx_HAL_Driver/Src/stm32f1xx_hal_sram.c **** 
 1401              		.loc 1 974 5 view .LVU437
 1402 000e 90F84030 		ldrb	r3, [r0, #64]	@ zero_extendqisi2
 1403 0012 012B     		cmp	r3, #1
 1404 0014 12D0     		beq	.L98
 974:Drivers/STM32F1xx_HAL_Driver/Src/stm32f1xx_hal_sram.c **** 
 1405              		.loc 1 974 5 discriminator 2 view .LVU438
 1406 0016 0123     		movs	r3, #1
 1407 0018 80F84030 		strb	r3, [r0, #64]
 974:Drivers/STM32F1xx_HAL_Driver/Src/stm32f1xx_hal_sram.c **** 
 1408              		.loc 1 974 5 discriminator 2 view .LVU439
 977:Drivers/STM32F1xx_HAL_Driver/Src/stm32f1xx_hal_sram.c **** 
 1409              		.loc 1 977 5 discriminator 2 view .LVU440
 977:Drivers/STM32F1xx_HAL_Driver/Src/stm32f1xx_hal_sram.c **** 
 1410              		.loc 1 977 18 is_stmt 0 discriminator 2 view .LVU441
 1411 001c 0223     		movs	r3, #2
 1412 001e 80F84130 		strb	r3, [r0, #65]
 980:Drivers/STM32F1xx_HAL_Driver/Src/stm32f1xx_hal_sram.c **** 
 1413              		.loc 1 980 5 is_stmt 1 discriminator 2 view .LVU442
 980:Drivers/STM32F1xx_HAL_Driver/Src/stm32f1xx_hal_sram.c **** 
 1414              		.loc 1 980 11 is_stmt 0 discriminator 2 view .LVU443
 1415 0022 8168     		ldr	r1, [r0, #8]
 1416 0024 0068     		ldr	r0, [r0]
 1417              	.LVL135:
 980:Drivers/STM32F1xx_HAL_Driver/Src/stm32f1xx_hal_sram.c **** 
 1418              		.loc 1 980 11 discriminator 2 view .LVU444
 1419 0026 FFF7FEFF 		bl	FSMC_NORSRAM_WriteOperation_Disable
 1420              	.LVL136:
 983:Drivers/STM32F1xx_HAL_Driver/Src/stm32f1xx_hal_sram.c **** 
 1421              		.loc 1 983 5 is_stmt 1 discriminator 2 view .LVU445
 983:Drivers/STM32F1xx_HAL_Driver/Src/stm32f1xx_hal_sram.c **** 
 1422              		.loc 1 983 18 is_stmt 0 discriminator 2 view .LVU446
 1423 002a 0423     		movs	r3, #4
 1424 002c 84F84130 		strb	r3, [r4, #65]
 986:Drivers/STM32F1xx_HAL_Driver/Src/stm32f1xx_hal_sram.c ****   }
 1425              		.loc 1 986 5 is_stmt 1 discriminator 2 view .LVU447
ARM GAS  /tmp/ccxFNFiG.s 			page 52


 986:Drivers/STM32F1xx_HAL_Driver/Src/stm32f1xx_hal_sram.c ****   }
 1426              		.loc 1 986 5 discriminator 2 view .LVU448
 1427 0030 0020     		movs	r0, #0
 1428 0032 84F84000 		strb	r0, [r4, #64]
 986:Drivers/STM32F1xx_HAL_Driver/Src/stm32f1xx_hal_sram.c ****   }
 1429              		.loc 1 986 5 discriminator 2 view .LVU449
 993:Drivers/STM32F1xx_HAL_Driver/Src/stm32f1xx_hal_sram.c **** }
 1430              		.loc 1 993 3 discriminator 2 view .LVU450
 1431              	.L96:
 994:Drivers/STM32F1xx_HAL_Driver/Src/stm32f1xx_hal_sram.c **** 
 1432              		.loc 1 994 1 is_stmt 0 view .LVU451
 1433 0036 10BD     		pop	{r4, pc}
 1434              	.LVL137:
 1435              	.L97:
 1436              	.LCFI22:
 1437              		.cfi_def_cfa_offset 0
 1438              		.cfi_restore 4
 1439              		.cfi_restore 14
 990:Drivers/STM32F1xx_HAL_Driver/Src/stm32f1xx_hal_sram.c ****   }
 1440              		.loc 1 990 12 view .LVU452
 1441 0038 0120     		movs	r0, #1
 1442              	.LVL138:
 994:Drivers/STM32F1xx_HAL_Driver/Src/stm32f1xx_hal_sram.c **** 
 1443              		.loc 1 994 1 view .LVU453
 1444 003a 7047     		bx	lr
 1445              	.LVL139:
 1446              	.L98:
 1447              	.LCFI23:
 1448              		.cfi_def_cfa_offset 8
 1449              		.cfi_offset 4, -8
 1450              		.cfi_offset 14, -4
 974:Drivers/STM32F1xx_HAL_Driver/Src/stm32f1xx_hal_sram.c **** 
 1451              		.loc 1 974 5 view .LVU454
 1452 003c 0220     		movs	r0, #2
 1453              	.LVL140:
 974:Drivers/STM32F1xx_HAL_Driver/Src/stm32f1xx_hal_sram.c **** 
 1454              		.loc 1 974 5 view .LVU455
 1455 003e FAE7     		b	.L96
 1456              		.cfi_endproc
 1457              	.LFE80:
 1459              		.section	.text.HAL_SRAM_GetState,"ax",%progbits
 1460              		.align	1
 1461              		.global	HAL_SRAM_GetState
 1462              		.syntax unified
 1463              		.thumb
 1464              		.thumb_func
 1466              	HAL_SRAM_GetState:
 1467              	.LVL141:
 1468              	.LFB81:
1022:Drivers/STM32F1xx_HAL_Driver/Src/stm32f1xx_hal_sram.c ****   return hsram->State;
 1469              		.loc 1 1022 1 is_stmt 1 view -0
 1470              		.cfi_startproc
 1471              		@ args = 0, pretend = 0, frame = 0
 1472              		@ frame_needed = 0, uses_anonymous_args = 0
 1473              		@ link register save eliminated.
1023:Drivers/STM32F1xx_HAL_Driver/Src/stm32f1xx_hal_sram.c **** }
 1474              		.loc 1 1023 3 view .LVU457
ARM GAS  /tmp/ccxFNFiG.s 			page 53


1023:Drivers/STM32F1xx_HAL_Driver/Src/stm32f1xx_hal_sram.c **** }
 1475              		.loc 1 1023 15 is_stmt 0 view .LVU458
 1476 0000 90F84100 		ldrb	r0, [r0, #65]	@ zero_extendqisi2
 1477              	.LVL142:
1024:Drivers/STM32F1xx_HAL_Driver/Src/stm32f1xx_hal_sram.c **** 
 1478              		.loc 1 1024 1 view .LVU459
 1479 0004 7047     		bx	lr
 1480              		.cfi_endproc
 1481              	.LFE81:
 1483              		.text
 1484              	.Letext0:
 1485              		.file 2 "/home/wanghao/gcc-arm-none-eabi/arm-none-eabi/include/machine/_default_types.h"
 1486              		.file 3 "/home/wanghao/gcc-arm-none-eabi/arm-none-eabi/include/sys/_stdint.h"
 1487              		.file 4 "Drivers/CMSIS/Device/ST/STM32F1xx/Include/stm32f103xe.h"
 1488              		.file 5 "Drivers/STM32F1xx_HAL_Driver/Inc/stm32f1xx_hal_def.h"
 1489              		.file 6 "Drivers/STM32F1xx_HAL_Driver/Inc/stm32f1xx_hal_dma.h"
 1490              		.file 7 "Drivers/STM32F1xx_HAL_Driver/Inc/stm32f1xx_ll_fsmc.h"
 1491              		.file 8 "Drivers/STM32F1xx_HAL_Driver/Inc/stm32f1xx_hal_sram.h"
ARM GAS  /tmp/ccxFNFiG.s 			page 54

